; Listing generated by Microsoft (R) Optimizing Compiler Version 19.00.24215.1 

	TITLE	D:\custom\test\练习和实验\算法\main.c
	.686P
	.XMM
	include listing.inc
	.model	flat

INCLUDELIB MSVCRTD
INCLUDELIB OLDNAMES

PUBLIC	_g_ver_b
PUBLIC	_array_source
PUBLIC	_array_source_large
_DATA	SEGMENT
COMM	_g_ver_a:DWORD
COMM	_start_time:DWORD
COMM	_end_time:DWORD
_DATA	ENDS
_DATA	SEGMENT
_g_ver_b DD	0aH
_array_source DD 05H
	DD	00H
	DD	0aH
	DD	02H
	DD	03H
	DD	04H
	DD	06H
	DD	08H
	DD	09H
	DD	07H
?b@?1??main@@9@9 DD 05H					; `main'::`2'::b
_array_source_large DD 08a6H
	DD	06a9H
	DD	020beH
	DD	022a1H
	DD	0248cH
	DD	02200H
	DD	0448H
	DD	028cH
	DD	01048H
	DD	0b25H
	DD	021f6H
	DD	01705H
	DD	026bfH
	DD	062aH
	DD	01407H
	DD	02077H
	DD	01ce5H
	DD	0211bH
	DD	0f70H
	DD	01feeH
	DD	022f4H
	DD	08aaH
	DD	022ccH
	DD	04d8H
	DD	0477H
	DD	0a83H
	DD	01108H
	DD	0150cH
	DD	093H
	DD	0164H
	DD	01a9bH
	DD	01c13H
	DD	025f4H
	DD	02581H
	DD	0146aH
	DD	02379H
	DD	02462H
	DD	05e0H
	DD	0108fH
	DD	01370H
	DD	01decH
	DD	01ab5H
	DD	01e51H
	DD	04feH
	DD	01887H
	DD	011e9H
	DD	02692H
	DD	01555H
	DD	0170aH
	DD	0fb4H
	DD	01d62H
	DD	01347H
	DD	021eH
	DD	0130aH
	DD	021daH
	DD	01b3H
	DD	0680H
	DD	0154bH
	DD	0aa4H
	DD	0504H
	DD	048cH
	DD	038fH
	DD	01addH
	DD	0223eH
	DD	02682H
	DD	0142dH
	DD	042bH
	DD	02082H
	DD	0254H
	DD	04ebH
	DD	026b9H
	DD	0a06H
	DD	021d6H
	DD	01a76H
	DD	07e2H
	DD	0e97H
	DD	018ddH
	DD	0c70H
	DD	072eH
	DD	02225H
	DD	01cabH
	DD	02b1H
	DD	04b4H
	DD	01e1eH
	DD	01c63H
	DD	01ea5H
	DD	015f9H
	DD	013a3H
	DD	0b47H
	DD	0137H
	DD	01512H
	DD	0b75H
	DD	022b3H
	DD	07d8H
	DD	0167fH
	DD	01899H
	DD	04cH
	DD	011d8H
	DD	02441H
	DD	0176fH
	DD	0140cH
	DD	013baH
	DD	019a5H
	DD	0c85H
	DD	022d1H
	DD	0ca2H
	DD	0296H
	DD	0b41H
	DD	0165fH
	DD	0999H
	DD	01a79H
	DD	015b0H
	DD	02325H
	DD	01166H
	DD	07b6H
	DD	019f0H
	DD	0729H
	DD	0243cH
	DD	01d40H
	DD	0b26H
	DD	0904H
	DD	013daH
	DD	015bdH
	DD	01676H
	DD	0c3cH
	DD	0399H
	DD	014H
	DD	01934H
	DD	021d7H
	DD	0d9aH
	DD	02212H
	DD	0defH
	DD	0220aH
	DD	01ebaH
	DD	01f5cH
	DD	022efH
	DD	0242bH
	DD	013b3H
	DD	014faH
	DD	068eH
	DD	0eafH
	DD	01613H
	DD	012e2H
	DD	0b57H
	DD	0182aH
	DD	01e9dH
	DD	01db1H
	DD	0b56H
	DD	0234dH
	DD	0670H
	DD	025bfH
	DD	015abH
	DD	02c6H
	DD	012eaH
	DD	01ae2H
	DD	01fbeH
	DD	012fdH
	DD	012H
	DD	01b1aH
	DD	013d3H
	DD	02698H
	DD	01785H
	DD	0c4eH
	DD	0c0dH
	DD	02134H
	DD	0fecH
	DD	0865H
	DD	0affH
	DD	0587H
	DD	046bH
	DD	024edH
	DD	01708H
	DD	064fH
	DD	01584H
	DD	0124eH
	DD	015a9H
	DD	0150dH
	DD	0549H
	DD	021d1H
	DD	0f66H
	DD	02388H
	DD	01fb5H
	DD	0166dH
	DD	01795H
	DD	0f12H
	DD	0d9eH
	DD	01d4dH
	DD	0170cH
	DD	01cdeH
	DD	01e7bH
	DD	01250H
	DD	012ddH
	DD	070bH
	DD	0207eH
	DD	0c37H
	DD	016d0H
	DD	01bf2H
	DD	09acH
	DD	0250bH
	DD	01835H
	DD	02190H
	DD	06bbH
	DD	01a5aH
	DD	01152H
	DD	0bb7H
	DD	01ba6H
	DD	09fH
	DD	01830H
	DD	01b68H
	DD	02348H
	DD	013b6H
	DD	01861H
	DD	0e8dH
	DD	023b9H
	DD	02696H
	DD	0181eH
	DD	0866H
	DD	023eH
	DD	02434H
	DD	01f24H
	DD	0e8aH
	DD	0a3bH
	DD	020fbH
	DD	0478H
	DD	026dfH
	DD	08a2H
	DD	02294H
	DD	0115H
	DD	01e11H
	DD	02243H
	DD	02678H
	DD	01d9cH
	DD	0e2aH
	DD	09f2H
	DD	01e74H
	DD	0f40H
	DD	0367H
	DD	0f60H
	DD	0176dH
	DD	0b50H
	DD	01857H
	DD	0d78H
	DD	019ddH
	DD	0c2H
	DD	01f01H
	DD	06b0H
	DD	01b30H
	DD	01ccH
	DD	0167H
	DD	02509H
	DD	07e0H
	DD	018dH
	DD	025e6H
	DD	0262bH
	DD	016a5H
	DD	020f9H
	DD	0150H
	DD	0186eH
	DD	010ddH
	DD	01af0H
	DD	0158fH
	DD	022d6H
	DD	0d8eH
	DD	0a6bH
	DD	01bd0H
	DD	01b66H
	DD	09dH
	DD	015a7H
	DD	01e78H
	DD	01a8dH
	DD	025b4H
	DD	04bfH
	DD	01327H
	DD	02483H
	DD	0dc1H
	DD	07baH
	DD	0114dH
	DD	04b5H
	DD	011cH
	DD	0924H
	DD	0a9aH
	DD	0352H
	DD	0225bH
	DD	02361H
	DD	0ad0H
	DD	0d9cH
	DD	0afcH
	DD	014acH
	DD	079cH
	DD	015b2H
	DD	04d0H
	DD	01217H
	DD	019abH
	DD	02b4H
	DD	0403H
	DD	01f79H
	DD	0a65H
	DD	0c60H
	DD	023f6H
	DD	010a6H
	DD	01a36H
	DD	0672H
	DD	0762H
	DD	0420H
	DD	0139dH
	DD	0e51H
	DD	01aecH
	DD	0e31H
	DD	08a7H
	DD	0ac8H
	DD	095H
	DD	0dfaH
	DD	01807H
	DD	0ab4H
	DD	0e1bH
	DD	02656H
	DD	026d0H
	DD	020c1H
	DD	0642H
	DD	0b98H
	DD	01e0eH
	DD	01c91H
	DD	05bdH
	DD	01443H
	DD	01f60H
	DD	020bfH
	DD	01ce3H
	DD	0186aH
	DD	0113fH
	DD	09daH
	DD	01984H
	DD	01d59H
	DD	01badH
	DD	01943H
	DD	01aH
	DD	02afH
	DD	01267H
	DD	018dcH
	DD	0189eH
	DD	01f43H
	DD	022a6H
	DD	01b2bH
	DD	0a72H
	DD	024c1H
	DD	062eH
	DD	0133fH
	DD	01f15H
	DD	01f6H
	DD	024baH
	DD	0c9eH
	DD	0159aH
	DD	0f4eH
	DD	0196dH
	DD	025f9H
	DD	026aH
	DD	021f5H
	DD	01a3eH
	DD	010f0H
	DD	02369H
	DD	0e5H
	DD	025fcH
	DD	0bfH
	DD	01c9H
	DD	0593H
	DD	01bcfH
	DD	01594H
	DD	02101H
	DD	01d58H
	DD	0a0bH
	DD	0200aH
	DD	01b7aH
	DD	05f2H
	DD	0f7dH
	DD	039aH
	DD	01194H
	DD	0d14H
	DD	0dd6H
	DD	0ea2H
	DD	02669H
	DD	01b9bH
	DD	0bbfH
	DD	022dbH
	DD	0245eH
	DD	056H
	DD	04f8H
	DD	0120H
	DD	0dc2H
	DD	0769H
	DD	01311H
	DD	0615H
	DD	013b1H
	DD	0128dH
	DD	021c0H
	DD	02550H
	DD	06ceH
	DD	05b6H
	DD	01fcaH
	DD	015f5H
	DD	01034H
	DD	05c8H
	DD	01ef8H
	DD	01342H
	DD	02152H
	DD	0ebbH
	DD	01a0fH
	DD	02167H
	DD	01eccH
	DD	0e9cH
	DD	0da4H
	DD	0d92H
	DD	0253eH
	DD	0143H
	DD	021eaH
	DD	01135H
	DD	0201fH
	DD	025beH
	DD	01735H
	DD	01c02H
	DD	0c3bH
	DD	01920H
	DD	01ceH
	DD	017c7H
	DD	01cc0H
	DD	01744H
	DD	016e7H
	DD	02125H
	DD	02385H
	DD	02532H
	DD	018deH
	DD	0146bH
	DD	0150fH
	DD	01da4H
	DD	01b83H
	DD	0eebH
	DD	01809H
	DD	01a2fH
	DD	0f99H
	DD	080bH
	DD	0836H
	DD	0749H
	DD	023a0H
	DD	072bH
	DD	01be4H
	DD	055eH
	DD	0dcfH
	DD	0b69H
	DD	0257dH
	DD	018f5H
	DD	02255H
	DD	0dd7H
	DD	02097H
	DD	011b1H
	DD	02d6H
	DD	0228eH
	DD	08c0H
	DD	0d1bH
	DD	01359H
	DD	01c4dH
	DD	017cfH
	DD	01aebH
	DD	01c98H
	DD	016f1H
	DD	01b8H
	DD	01c1eH
	DD	01fd7H
	DD	0648H
	DD	021H
	DD	01172H
	DD	015d9H
	DD	094bH
	DD	0bc0H
	DD	051eH
	DD	07ebH
	DD	01e77H
	DD	01c9bH
	DD	08d7H
	DD	015e4H
	DD	01f89H
	DD	01be3H
	DD	0105cH
	DD	01b8eH
	DD	025d6H
	DD	02585H
	DD	0855H
	DD	0937H
	DD	02410H
	DD	0b4cH
	DD	029bH
	DD	0152fH
	DD	093bH
	DD	0236H
	DD	0130bH
	DD	01501H
	DD	0972H
	DD	01a96H
	DD	02465H
	DD	02568H
	DD	0df2H
	DD	0350H
	DD	0163eH
	DD	01668H
	DD	038bH
	DD	02349H
	DD	010faH
	DD	01913H
	DD	076dH
	DD	0876H
	DD	025fdH
	DD	01bacH
	DD	01827H
	DD	01cecH
	DD	011ebH
	DD	076fH
	DD	0154fH
	DD	055H
	DD	01a9aH
	DD	0bd2H
	DD	017f2H
	DD	0610H
	DD	0e11H
	DD	01427H
	DD	0f26H
	DD	01a91H
	DD	0e2H
	DD	02405H
	DD	016cdH
	DD	01bddH
	DD	020f0H
	DD	04e8H
	DD	01497H
	DD	01474H
	DD	02497H
	DD	01a6aH
	DD	097fH
	DD	0689H
	DD	04b7H
	DD	0fc8H
	DD	0974H
	DD	01d1cH
	DD	0d7fH
	DD	026bbH
	DD	027fH
	DD	0ceeH
	DD	02694H
	DD	0184fH
	DD	051cH
	DD	0226H
	DD	0e6aH
	DD	0d19H
	DD	04afH
	DD	0281H
	DD	09fdH
	DD	0213aH
	DD	0590H
	DD	01fd3H
	DD	06c9H
	DD	01691H
	DD	05e8H
	DD	0c11H
	DD	01ddeH
	DD	019caH
	DD	0192bH
	DD	0f1bH
	DD	0b2bH
	DD	0180fH
	DD	0349H
	DD	0e55H
	DD	02102H
	DD	0baeH
	DD	012b0H
	DD	01a41H
	DD	02086H
	DD	0499H
	DD	0219bH
	DD	01526H
	DD	06b9H
	DD	017e1H
	DD	0dc3H
	DD	0d3aH
	DD	01a87H
	DD	01e34H
	DD	01ad3H
	DD	01e9aH
	DD	0e3aH
	DD	0178eH
	DD	02686H
	DD	0cecH
	DD	0539H
	DD	05d1H
	DD	021b8H
	DD	0aceH
	DD	0249H
	DD	01902H
	DD	0195fH
	DD	0153cH
	DD	01d88H
	DD	01515H
	DD	012beH
	DD	01504H
	DD	0ee0H
	DD	08b4H
	DD	0222H
	DD	0e24H
	DD	01d2dH
	DD	0a41H
	DD	018fdH
	DD	01e9fH
	DD	07aeH
	DD	02341H
	DD	032dH
	DD	0230aH
	DD	012acH
	DD	02ccH
	DD	018c2H
	DD	028fH
	DD	0265H
	DD	01edH
	DD	08a4H
	DD	08bcH
	DD	0b03H
	DD	036bH
	DD	013a7H
	DD	07beH
	DD	01f67H
	DD	021cH
	DD	0160eH
	DD	0437H
	DD	020c7H
	DD	0338H
	DD	0fH
	DD	061bH
	DD	01006H
	DD	0d79H
	DD	0228cH
	DD	01fadH
	DD	01623H
	DD	015ffH
	DD	08eH
	DD	0839H
	DD	0ab7H
	DD	0155cH
	DD	0bf7H
	DD	01cf4H
	DD	0de9H
	DD	019afH
	DD	0153dH
	DD	0e06H
	DD	01bfeH
	DD	016aH
	DD	01116H
	DD	029fH
	DD	01155H
	DD	01ccdH
	DD	08ebH
	DD	0952H
	DD	0b5eH
	DD	074fH
	DD	02256H
	DD	0268eH
	DD	01b69H
	DD	0aeeH
	DD	01cedH
	DD	01206H
	DD	019fdH
	DD	0124dH
	DD	016b4H
	DD	011fH
	DD	0160bH
	DD	0169aH
	DD	01ed4H
	DD	01aacH
	DD	02527H
	DD	024e5H
	DD	0358H
	DD	01a34H
	DD	026d3H
	DD	012e1H
	DD	069cH
	DD	015ecH
	DD	037H
	DD	0794H
	DD	0264H
	DD	0a8aH
	DD	01a1bH
	DD	02063H
	DD	09d7H
	DD	02cdH
	DD	018bdH
	DD	0c32H
	DD	0205aH
	DD	0e94H
	DD	02163H
	DD	01e2eH
	DD	046aH
	DD	03eH
	DD	01d43H
	DD	0d20H
	DD	0b46H
	DD	05bH
	DD	01c0cH
	DD	021d9H
	DD	0776H
	DD	0454H
	DD	01316H
	DD	019c2H
	DD	06cH
	DD	0d0bH
	DD	01bb4H
	DD	01a0cH
	DD	01df4H
	DD	0188eH
	DD	023a7H
	DD	01013H
	DD	0245cH
	DD	022c9H
	DD	0559H
	DD	0dfbH
	DD	023acH
	DD	0257fH
	DD	0d3eH
	DD	079fH
	DD	02118H
	DD	01191H
	DD	0e09H
	DD	01fb0H
	DD	0434H
	DD	077fH
	DD	01253H
	DD	02104H
	DD	01fc2H
	DD	012e3H
	DD	0206bH
	DD	01a55H
	DD	02313H
	DD	0259bH
	DD	0192dH
	DD	0da8H
	DD	0192aH
	DD	0a03H
	DD	0239fH
	DD	0748H
	DD	02abH
	DD	0247bH
	DD	0987H
	DD	013caH
	DD	02668H
	DD	01dd0H
	DD	017b9H
	DD	017dcH
	DD	0a35H
	DD	0232bH
	DD	01f22H
	DD	0c10H
	DD	01fb3H
	DD	0216fH
	DD	0122fH
	DD	014c1H
	DD	0eb9H
	DD	01f99H
	DD	0787H
	DD	0732H
	DD	019e2H
	DD	0498H
	DD	021afH
	DD	01a07H
	DD	0227eH
	DD	017d0H
	DD	01786H
	DD	014ceH
	DD	01994H
	DD	0138aH
	DD	02f1H
	DD	010f9H
	DD	0fb1H
	DD	02253H
	DD	06a2H
	DD	017aeH
	DD	05H
	DD	078dH
	DD	030aH
	DD	024ecH
	DD	026b2H
	DD	0806H
	DD	083aH
	DD	015a8H
	DD	0bc9H
	DD	011dbH
	DD	05d6H
	DD	01f42H
	DD	01af4H
	DD	0ce6H
	DD	0113bH
	DD	01adH
	DD	01942H
	DD	05bcH
	DD	0479H
	DD	025e5H
	DD	0ca6H
	DD	0146cH
	DD	0811H
	DD	0bd6H
	DD	01bc2H
	DD	0f1H
	DD	060aH
	DD	021deH
	DD	0112H
	DD	0194fH
	DD	018b8H
	DD	038eH
	DD	01813H
	DD	0222dH
	DD	0754H
	DD	0d3H
	DD	023d0H
	DD	01ac6H
	DD	06adH
	DD	0f22H
	DD	01985H
	DD	0c13H
	DD	02492H
	DD	01449H
	DD	02a9H
	DD	024d2H
	DD	0238dH
	DD	0105bH
	DD	01ed3H
	DD	01957H
	DD	02110H
	DD	02036H
	DD	01c7eH
	DD	01561H
	DD	01eb6H
	DD	04fcH
	DD	01cH
	DD	0a64H
	DD	026e8H
	DD	02128H
	DD	0db7H
	DD	08d5H
	DD	017e3H
	DD	07ceH
	DD	09c4H
	DD	0b3H
	DD	018beH
	DD	0b1aH
	DD	0605H
	DD	038cH
	DD	09dfH
	DD	012feH
	DD	01864H
	DD	01301H
	DD	0e92H
	DD	03d6H
	DD	01681H
	DD	01ccaH
	DD	0697H
	DD	08a9H
	DD	01890H
	DD	0743H
	DD	01f83H
	DD	0905H
	DD	0182cH
	DD	0dfeH
	DD	02099H
	DD	0178bH
	DD	0cb9H
	DD	0140aH
	DD	01b4cH
	DD	0440H
	DD	02096H
	DD	0190fH
	DD	025c9H
	DD	0207dH
	DD	01051H
	DD	0775H
	DD	074aH
	DD	0f25H
	DD	01d42H
	DD	01faH
	DD	0aa3H
	DD	01762H
	DD	0abbH
	DD	069eH
	DD	0696H
	DD	013d6H
	DD	01239H
	DD	02370H
	DD	0eaeH
	DD	0b6dH
	DD	01782H
	DD	0d47H
	DD	01208H
	DD	01880H
	DD	0687H
	DD	0b06H
	DD	043H
	DD	01bebH
	DD	0880H
	DD	0846H
	DD	02205H
	DD	0d62H
	DD	02232H
	DD	0311H
	DD	014aeH
	DD	025b9H
	DD	0f8aH
	DD	01181H
	DD	024f7H
	DD	0208H
	DD	020efH
	DD	0ec6H
	DD	0e65H
	DD	0cc7H
	DD	01c97H
	DD	021a3H
	DD	020afH
	DD	0a15H
	DD	02681H
	DD	025e8H
	DD	041cH
	DD	0ef0H
	DD	024a4H
	DD	012c7H
	DD	016b9H
	DD	014fcH
	DD	0c8cH
	DD	0116fH
	DD	011d5H
	DD	01b85H
	DD	0122aH
	DD	0258bH
	DD	05e1H
	DD	0c59H
	DD	01ee3H
	DD	021b9H
	DD	0174cH
	DD	01112H
	DD	01dc9H
	DD	01419H
	DD	0ce1H
	DD	025d7H
	DD	020f8H
	DD	03acH
	DD	017ccH
	DD	01229H
	DD	0114cH
	DD	0227fH
	DD	01d8eH
	DD	0507H
	DD	09c6H
	DD	01074H
	DD	02153H
	DD	0736H
	DD	01d3fH
	DD	01673H
	DD	02601H
	DD	014bfH
	DD	0d04H
	DD	0216aH
	DD	0789H
	DD	01a3dH
	DD	02242H
	DD	01345H
	DD	05ccH
	DD	09eH
	DD	01822H
	DD	01fc4H
	DD	0700H
	DD	0193dH
	DD	02014H
	DD	02667H
	DD	0d95H
	DD	02479H
	DD	012a6H
	DD	02285H
	DD	01653H
	DD	02618H
	DD	0159bH
	DD	010c5H
	DD	0a3fH
	DD	016e1H
	DD	0ccaH
	DD	0a34H
	DD	01a95H
	DD	06ebH
	DD	0363H
	DD	01416H
	DD	05eeH
	DD	012abH
	DD	05f7H
	DD	01dbdH
	DD	069aH
	DD	01868H
	DD	01e12H
	DD	0562H
	DD	07eeH
	DD	09a5H
	DD	0266fH
	DD	0240dH
	DD	0dbaH
	DD	054cH
	DD	016a0H
	DD	017a4H
	DD	0201aH
	DD	01299H
	DD	0ab5H
	DD	01b5cH
	DD	01f37H
	DD	08b8H
	DD	011d6H
	DD	01f68H
	DD	01becH
	DD	01be7H
	DD	084dH
	DD	02403H
	DD	01b3aH
	DD	01dfbH
	DD	082H
	DD	02420H
	DD	020ffH
	DD	01798H
	DD	0193aH
	DD	01568H
	DD	0159eH
	DD	016adH
	DD	01088H
	DD	08e4H
	DD	023bH
	DD	0e3fH
	DD	02001H
	DD	042eH
	DD	01de9H
	DD	0cf2H
	DD	01b41H
	DD	01a63H
	DD	011cbH
	DD	024b2H
	DD	01f2aH
	DD	01c9fH
	DD	012dcH
	DD	0aa2H
	DD	010bH
	DD	0204eH
	DD	02567H
	DD	097H
	DD	01806H
	DD	0f2fH
	DD	021ddH
	DD	02478H
	DD	0e93H
	DD	0124H
	DD	0470H
	DD	02288H
	DD	018cfH
	DD	0c90H
	DD	02542H
	DD	0dbcH
	DD	0b49H
	DD	01550H
	DD	01332H
	DD	01b77H
	DD	06f0H
	DD	0435H
	DD	0d16H
	DD	022fH
	DD	0f2eH
	DD	022d0H
	DD	01f50H
	DD	04c6H
	DD	0182fH
	DD	02027H
	DD	012ecH
	DD	01dc3H
	DD	02489H
	DD	011ccH
	DD	01097H
	DD	05aaH
	DD	071dH
	DD	0773H
	DD	08d3H
	DD	02572H
	DD	014e4H
	DD	0da2H
	DD	09bH
	DD	013afH
	DD	0c3dH
	DD	08deH
	DD	03d1H
	DD	0107bH
	DD	0634H
	DD	06fH
	DD	01f82H
	DD	01ad8H
	DD	01715H
	DD	0e19H
	DD	01215H
	DD	01643H
	DD	0914H
	DD	0184aH
	DD	02230H
	DD	0e7eH
	DD	013c2H
	DD	0e72H
	DD	0ea0H
	DD	0267bH
	DD	01326H
	DD	01460H
	DD	0107aH
	DD	01cf0H
	DD	01a57H
	DD	011d9H
	DD	01780H
	DD	01b65H
	DD	023H
	DD	01ae4H
	DD	02248H
	DD	0942H
	DD	02151H
	DD	06c7H
	DD	02059H
	DD	016bcH
	DD	02094H
	DD	017cdH
	DD	01365H
	DD	01696H
	DD	023f3H
	DD	0f2bH
	DD	0745H
	DD	01c23H
	DD	0469H
	DD	0132aH
	DD	01cdcH
	DD	02705H
	DD	010c0H
	DD	016daH
	DD	0192cH
	DD	0226dH
	DD	01e75H
	DD	01f49H
	DD	01436H
	DD	08ceH
	DD	01ae5H
	DD	01731H
	DD	01966H
	DD	07f7H
	DD	053bH
	DD	0145aH
	DD	01d28H
	DD	0e30H
	DD	01901H
	DD	01b3fH
	DD	01970H
	DD	0164fH
	DD	02224H
	DD	0d90H
	DD	021e0H
	DD	01522H
	DD	0943H
	DD	0637H
	DD	09a0H
	DD	010bfH
	DD	0243fH
	DD	0717H
	DD	021b2H
	DD	0afbH
	DD	01d57H
	DD	0d99H
	DD	0fa9H
	DD	011c9H
	DD	0cedH
	DD	01524H
	DD	02e3H
	DD	0579H
	DD	0106H
	DD	01ea1H
	DD	01719H
	DD	08f4H
	DD	01531H
	DD	022f9H
	DD	0c3fH
	DD	01f06H
	DD	0b63H
	DD	0208bH
	DD	01ba2H
	DD	01f9aH
	DD	088cH
	DD	0e00H
	DD	0baaH
	DD	0102H
	DD	012c2H
	DD	09dcH
	DD	02415H
	DD	017bfH
	DD	01bf0H
	DD	0416H
	DD	01a7dH
	DD	01986H
	DD	0cadH
	DD	068aH
	DD	02399H
	DD	0d09H
	DD	0354H
	DD	01e89H
	DD	01acH
	DD	091dH
	DD	020a7H
	DD	024a8H
	DD	0d89H
	DD	01c32H
	DD	0b83H
	DD	075fH
	DD	098eH
	DD	01478H
	DD	079aH
	DD	0260aH
	DD	0d68H
	DD	01d56H
	DD	0269bH
	DD	01257H
	DD	01428H
	DD	018a4H
	DD	0fd0H
	DD	0149dH
	DD	0f6cH
	DD	01af8H
	DD	01fd2H
	DD	0400H
	DD	01ac8H
	DD	02657H
	DD	01834H
	DD	0334H
	DD	01581H
	DD	033bH
	DD	01b98H
	DD	021c2H
	DD	03efH
	DD	01186H
	DD	04a8H
	DD	01314H
	DD	0eddH
	DD	01803H
	DD	0137bH
	DD	0bd7H
	DD	01ab9H
	DD	0b23H
	DD	04cdH
	DD	011c3H
	DD	01ddcH
	DD	01704H
	DD	02162H
	DD	01778H
	DD	02229H
	DD	026a9H
	DD	07eaH
	DD	028dH
	DD	01933H
	DD	023ecH
	DD	0263H
	DD	02186H
	DD	05c1H
	DD	026d1H
	DD	01aa8H
	DD	01fffH
	DD	0259fH
	DD	015c6H
	DD	0575H
	DD	0301H
	DD	01db6H
	DD	01600H
	DD	0fd6H
	DD	01adaH
	DD	01824H
	DD	01aabH
	DD	01abH
	DD	01c25H
	DD	01343H
	DD	0d58H
	DD	01362H
	DD	01d4aH
	DD	06bcH
	DD	01952H
	DD	015d1H
	DD	0602H
	DD	01b08H
	DD	0dceH
	DD	0c9bH
	DD	08f7H
	DD	0de7H
	DD	0115bH
	DD	01980H
	DD	0177eH
	DD	01f7cH
	DD	01d6H
	DD	0250eH
	DD	08c3H
	DD	0e4eH
	DD	015bcH
	DD	022aeH
	DD	025f0H
	DD	098dH
	DD	01b4fH
	DD	06bdH
	DD	0189H
	DD	06c2H
	DD	01634H
	DD	01abdH
	DD	0224bH
	DD	012a3H
	DD	01e93H
	DD	020f2H
	DD	0af9H
	DD	0595H
	DD	0f2dH
	DD	02154H
	DD	01946H
	DD	0364H
	DD	024b0H
	DD	013a0H
	DD	01576H
	DD	0251bH
	DD	026daH
	DD	0b6bH
	DD	02488H
	DD	01421H
	DD	01615H
	DD	01154H
	DD	0644H
	DD	01c06H
	DD	06daH
	DD	026d5H
	DD	086eH
	DD	0d0aH
	DD	01c3bH
	DD	09b0H
	DD	025e3H
	DD	063dH
	DD	0450H
	DD	02439H
	DD	0538H
	DD	0198cH
	DD	01d01H
	DD	087cH
	DD	0357H
	DD	01fedH
	DD	07bdH
	DD	0f8cH
	DD	017bcH
	DD	098cH
	DD	016e9H
	DD	0424H
	DD	0b4aH
	DD	0e52H
	DD	0b95H
	DD	01fcH
	DD	01642H
	DD	04aaH
	DD	0cfdH
	DD	02335H
	DD	01d24H
	DD	02357H
	DD	010ebH
	DD	02290H
	DD	0316H
	DD	01462H
	DD	0f9bH
	DD	025cbH
	DD	026abH
	DD	0169eH
	DD	02aaH
	DD	022b6H
	DD	022d9H
	DD	02608H
	DD	01d9fH
	DD	02058H
	DD	0129aH
	DD	0b97H
	DD	0506H
	DD	01066H
	DD	02672H
	DD	01a09H
	DD	0210aH
	DD	063aH
	DD	023a8H
	DD	050dH
	DD	01a73H
	DD	01d1H
	DD	013b4H
	DD	041H
	DD	0dd1H
	DD	0140dH
	DD	01271H
	DD	0202eH
	DD	09a6H
	DD	01fb9H
	DD	04aeH
	DD	025d9H
	DD	0495H
	DD	0415H
	DD	0144fH
	DD	026H
	DD	02700H
	DD	0656H
	DD	018a9H
	DD	024adH
	DD	040cH
	DD	0f9eH
	DD	02c1H
	DD	0f41H
	DD	0c3H
	DD	0aa8H
	DD	0759H
	DD	07H
	DD	0f5fH
	DD	01bcH
	DD	0245fH
	DD	02251H
	DD	0148dH
	DD	08e5H
	DD	0856H
	DD	01a65H
	DD	014f2H
	DD	0805H
	DD	019fbH
	DD	01dfcH
	DD	01ecH
	DD	026a4H
	DD	08e9H
	DD	0524H
	DD	026b8H
	DD	076H
	DD	013H
	DD	01c8bH
	DD	01889H
	DD	09e4H
	DD	020b2H
	DD	019edH
	DD	01e25H
	DD	01fe5H
	DD	01b9eH
	DD	03fcH
	DD	0a0fH
	DD	0fb8H
	DD	01afdH
	DD	04b3H
	DD	025d4H
	DD	01084H
	DD	012daH
	DD	0b15H
	DD	01afeH
	DD	0a1fH
	DD	0a7bH
	DD	08cH
	DD	09ebH
	DD	018daH
	DD	07b8H
	DD	0be4H
	DD	01dc2H
	DD	09d5H
	DD	0465H
	DD	01321H
	DD	0fceH
	DD	0209aH
	DD	0232eH
	DD	02d8H
	DD	0cd9H
	DD	0180eH
	DD	0238aH
	DD	01c55H
	DD	0135dH
	DD	0180aH
	DD	01937H
	DD	011d3H
	DD	02528H
	DD	020e8H
	DD	03a1H
	DD	025ecH
	DD	01127H
	DD	06b5H
	DD	02387H
	DD	01cefH
	DD	02398H
	DD	01335H
	DD	0a0H
	DD	01590H
	DD	02426H
	DD	0149H
	DD	011baH
	DD	07f9H
	DD	0149aH
	DD	01529H
	DD	0fabH
	DD	0214cH
	DD	013a2H
	DD	0d86H
	DD	0a14H
	DD	02326H
	DD	019b2H
	DD	02414H
	DD	0c0eH
	DD	01469H
	DD	01a6fH
	DD	0140bH
	DD	0ddH
	DD	0bfdH
	DD	0d71H
	DD	092H
	DD	024deH
	DD	021e6H
	DD	024c3H
	DD	01220H
	DD	0183cH
	DD	02473H
	DD	0755H
	DD	0288H
	DD	02239H
	DD	0fcbH
	DD	01dffH
	DD	01d15H
	DD	0218eH
	DD	0bbcH
	DD	02faH
	DD	0187aH
	DD	01776H
	DD	01d6eH
	DD	0152eH
	DD	0326H
	DD	035aH
	DD	0f73H
	DD	0200bH
	DD	01e9eH
	DD	0120fH
	DD	01e01H
	DD	01455H
	DD	01c00H
	DD	0249eH
	DD	072dH
	DD	0669H
	DD	018aH
	DD	054dH
	DD	010c4H
	DD	0f85H
	DD	01587H
	DD	0266dH
	DD	021aH
	DD	0c40H
	DD	01434H
	DD	01d7fH
	DD	0a94H
	DD	01b01H
	DD	0f47H
	DD	01dd9H
	DD	0162cH
	DD	01929H
	DD	013f5H
	DD	01293H
	DD	09bbH
	DD	0740H
	DD	0625H
	DD	012f9H
	DD	0a7dH
	DD	01ee6H
	DD	012ccH
	DD	02593H
	DD	07d1H
	DD	0956H
	DD	0c45H
	DD	0383H
	DD	017d2H
	DD	02054H
	DD	013fdH
	DD	0c02H
	DD	011ceH
	DD	01cb0H
	DD	013acH
	DD	01c28H
	DD	01cebH
	DD	021c3H
	DD	06H
	DD	0a4cH
	DD	023b0H
	DD	052dH
	DD	01b50H
	DD	023e8H
	DD	0533H
	DD	01618H
	DD	023beH
	DD	02219H
	DD	0136aH
	DD	09b5H
	DD	020dH
	DD	02069H
	DD	01ea0H
	DD	0203eH
	DD	06e5H
	DD	0241fH
	DD	0962H
	DD	0d0fH
	DD	01b09H
	DD	02480H
	DD	01e20H
	DD	0ac4H
	DD	024aH
	DD	01401H
	DD	020f5H
	DD	03e1H
	DD	023adH
	DD	048H
	DD	06acH
	DD	027H
	DD	01480H
	DD	01787H
	DD	01cf2H
	DD	01366H
	DD	015c0H
	DD	0247cH
	DD	01b97H
	DD	0ac0H
	DD	01cd5H
	DD	026d9H
	DD	025d3H
	DD	01c78H
	DD	02548H
	DD	01ec1H
	DD	03b3H
	DD	01516H
	DD	0b4fH
	DD	07b3H
	DD	01c31H
	DD	013f9H
	DD	025e7H
	DD	033eH
	DD	01bfcH
	DD	01b1fH
	DD	01e24H
	DD	0f0cH
	DD	014c4H
	DD	06ffH
	DD	05d9H
	DD	0d01H
	DD	01027H
	DD	03d3H
	DD	0211fH
	DD	01c5dH
	DD	01517H
	DD	02316H
	DD	0edH
	DD	08ccH
	DD	01574H
	DD	01748H
	DD	0179dH
	DD	01579H
	DD	02531H
	DD	086aH
	DD	01d0eH
	DD	01f5H
	DD	0b2cH
	DD	0946H
	DD	0c75H
	DD	0145H
	DD	0820H
	DD	019e3H
	DD	024eaH
	DD	023a9H
	DD	0171fH
	DD	01f1bH
	DD	09abH
	DD	0158H
	DD	01ee0H
	DD	0e3cH
	DD	014afH
	DD	01572H
	DD	01ef7H
	DD	0238eH
	DD	014a6H
	DD	01f28H
	DD	0212aH
	DD	02185H
	DD	01790H
	DD	09f7H
	DD	02529H
	DD	0f83H
	DD	014bbH
	DD	01d83H
	DD	09H
	DD	01f6fH
	DD	0bd9H
	DD	0c7aH
	DD	0b37H
	DD	021b5H
	DD	0290H
	DD	01bedH
	DD	01eeeH
	DD	01dcaH
	DD	02587H
	DD	06c6H
	DD	05eH
	DD	011fcH
	DD	0155eH
	DD	0b9cH
	DD	010f7H
	DD	0c9H
	DD	0231fH
	DD	01c6dH
	DD	02365H
	DD	018bfH
	DD	0e66H
	DD	01694H
	DD	0177cH
	DD	02273H
	DD	016d6H
	DD	0be2H
	DD	0c98H
	DD	022a8H
	DD	0164cH
	DD	02321H
	DD	01a0H
	DD	01ec3H
	DD	0b13H
	DD	01838H
	DD	0319H
	DD	01cf8H
	DD	01438H
	DD	01728H
	DD	0171dH
	DD	01856H
	DD	02455H
	DD	0c0cH
	DD	01ddbH
	DD	0368H
	DD	0bbaH
	DD	01726H
	DD	012adH
	DD	01754H
	DD	0dH
	DD	01f3H
	DD	02005H
	DD	018b5H
	DD	04c1H
	DD	01138H
	DD	0ce8H
	DD	01fd4H
	DD	01816H
	DD	0ff7H
	DD	07d9H
	DD	03dH
	DD	01d1bH
	DD	010a2H
	DD	08dcH
	DD	083eH
	DD	019f4H
	DD	02436H
	DD	02180H
	DD	0a32H
	DD	02327H
	DD	02397H
	DD	0340H
	DD	01b22H
	DD	0106dH
	DD	0210cH
	DD	017ceH
	DD	01babH
	DD	0791H
	DD	025b8H
	DD	01eafH
	DD	01aadH
	DD	01c7H
	DD	0760H
	DD	018f7H
	DD	09e0H
	DD	0233bH
	DD	01cd8H
	DD	01b25H
	DD	012fbH
	DD	0a5dH
	DD	019f2H
	DD	05c2H
	DD	092aH
	DD	02543H
	DD	01eeH
	DD	018abH
	DD	01823H
	DD	021a2H
	DD	01ad1H
	DD	01e76H
	DD	013dH
	DD	0a9fH
	DD	0162bH
	DD	01777H
	DD	0de4H
	DD	01d2cH
	DD	01647H
	DD	071cH
	DD	0edbH
	DD	053eH
	DD	023c5H
	DD	0877H
	DD	0810H
	DD	018c7H
	DD	015f1H
	DD	0d2bH
	DD	022dcH
	DD	01654H
	DD	036fH
	DD	02113H
	DD	02444H
	DD	02f9H
	DD	0fe3H
	DD	020abH
	DD	01884H
	DD	013e7H
	DD	01d44H
	DD	01ad2H
	DD	0afH
	DD	0ba4H
	DD	01f75H
	DD	02121H
	DD	01b11H
	DD	01065H
	DD	016ebH
	DD	03dcH
	DD	05a3H
	DD	02038H
	DD	01d4cH
	DD	017b2H
	DD	01387H
	DD	02066H
	DD	0d3fH
	DD	0194cH
	DD	01459H
	DD	01f4cH
	DD	015aeH
	DD	01862H
	DD	0134fH
	DD	01e5H
	DD	01431H
	DD	0269eH
	DD	01c42H
	DD	01c6eH
	DD	0152dH
	DD	0808H
	DD	015d0H
	DD	01e98H
	DD	0242dH
	DD	016ceH
	DD	0239aH
	DD	013d9H
	DD	0faaH
	DD	03fH
	DD	01c9dH
	DD	082fH
	DD	05a6H
	DD	089dH
	DD	014c9H
	DD	01d18H
	DD	01e8eH
	DD	01111H
	DD	019bfH
	DD	0142aH
	DD	0d52H
	DD	02171H
	DD	014abH
	DD	02307H
	DD	01a64H
	DD	023e4H
	DD	0185fH
	DD	0147fH
	DD	01f57H
	DD	0272H
	DD	03daH
	DD	01cc7H
	DD	0254cH
	DD	0118fH
	DD	01f0fH
	DD	013c6H
	DD	01e56H
	DD	0f68H
	DD	022acH
	DD	010d4H
	DD	02c5H
	DD	01dd2H
	DD	0f30H
	DD	01fcfH
	DD	0121H
	DD	01d17H
	DD	0c1fH
	DD	01291H
	DD	0564H
	DD	026bdH
	DD	0cebH
	DD	08b2H
	DD	0c9fH
	DD	01176H
	DD	05a4H
	DD	02070H
	DD	0215aH
	DD	0216H
	DD	0135cH
	DD	01dd7H
	DD	04d2H
	DD	01db5H
	DD	0b9aH
	DD	0d6bH
	DD	08ffH
	DD	08bdH
	DD	0142fH
	DD	011c7H
	DD	05feH
	DD	011efH
	DD	01658H
	DD	0205cH
	DD	01affH
	DD	017c3H
	DD	01f1fH
	DD	018edH
	DD	04ddH
	DD	02690H
	DD	0d18H
	DD	05c0H
	DD	015a3H
	DD	01c4aH
	DD	01f77H
	DD	02187H
	DD	024a7H
	DD	01114H
	DD	0259H
	DD	01f2H
	DD	01264H
	DD	0446H
	DD	0f49H
	DD	0664H
	DD	025f3H
	DD	0250cH
	DD	0ffaH
	DD	01680H
	DD	01ab7H
	DD	02022H
	DD	02701H
	DD	01ec0H
	DD	013bfH
	DD	01b63H
	DD	0958H
	DD	0a1H
	DD	0af7H
	DD	0d8dH
	DD	05b4H
	DD	07daH
	DD	0d02H
	DD	021bfH
	DD	0fd1H
	DD	023c7H
	DD	0863H
	DD	0b44H
	DD	01da8H
	DD	0695H
	DD	02155H
	DD	01169H
	DD	01cf3H
	DD	026ebH
	DD	01677H
	DD	02710H
	DD	08f8H
	DD	01d49H
	DD	0aeH
	DD	020fH
	DD	01437H
	DD	01458H
	DD	01c7cH
	DD	014edH
	DD	02c8H
	DD	010b3H
	DD	01cdH
	DD	0196cH
	DD	0fc4H
	DD	0118H
	DD	016e5H
	DD	012f5H
	DD	02350H
	DD	0dc6H
	DD	0536H
	DD	0efdH
	DD	0d8aH
	DD	0cabH
	DD	011d1H
	DD	0bf9H
	DD	0afdH
	DD	0e5aH
	DD	03b6H
	DD	0173cH
	DD	0908H
	DD	017e6H
	DD	083dH
	DD	01f35H
	DD	0183H
	DD	01630H
	DD	01575H
	DD	02537H
	DD	037fH
	DD	02175H
	DD	0e1eH
	DD	0a7H
	DD	023d6H
	DD	01e37H
	DD	01810H
	DD	02541H
	DD	012a0H
	DD	07f1H
	DD	01d60H
	DD	024eH
	DD	01f9bH
	DD	03bbH
	DD	03fbH
	DD	01e1dH
	DD	0514H
	DD	015a5H
	DD	01fe4H
	DD	0cbH
	DD	040H
	DD	017f5H
	DD	0763H
	DD	059cH
	DD	05a8H
	DD	01b86H
	DD	0f35H
	DD	08abH
	DD	057cH
	DD	0bbdH
	DD	01304H
	DD	0143dH
	DD	012a5H
	DD	01310H
	DD	05e7H
	DD	0b51H
	DD	026f0H
	DD	017d4H
	DD	032eH
	DD	0b8H
	DD	07bbH
	DD	099bH
	DD	01fb1H
	DD	02dH
	DD	0235dH
	DD	024d7H
	DD	01949H
	DD	01e88H
	DD	0f0aH
	DD	0d75H
	DD	01417H
	DD	01e38H
	DD	02707H
	DD	014feH
	DD	021e1H
	DD	058fH
	DD	01056H
	DD	094eH
	DD	013b8H
	DD	02664H
	DD	022e8H
	DD	01b4bH
	DD	0728H
	DD	0a2bH
	DD	02533H
	DD	02233H
	DD	02395H
	DD	0395H
	DD	0654H
	DD	021ceH
	DD	026fH
	DD	0170fH
	DD	0ed7H
	DD	051bH
	DD	0a87H
	DD	013cbH
	DD	01a60H
	DD	03aH
	DD	01831H
	DD	0157H
	DD	0178dH
	DD	04a6H
	DD	0c51H
	DD	01999H
	DD	024acH
	DD	0881H
	DD	011feH
	DD	02daH
	DD	02057H
	DD	020aH
	DD	02396H
	DD	02598H
	DD	01afH
	DD	017e0H
	DD	01de5H
	DD	084eH
	DD	01a69H
	DD	024ddH
	DD	0915H
	DD	0d50H
	DD	01dddH
	DD	01c08H
	DD	06d1H
	DD	01281H
	DD	01d96H
	DD	014ebH
	DD	043bH
	DD	0f17H
	DD	02193H
	DD	015cH
	DD	020a0H
	DD	01008H
	DD	0c30H
	DD	026f3H
	DD	01bdbH
	DD	0c82H
	DD	01a3aH
	DD	0255dH
	DD	01f12H
	DD	0cf7H
	DD	022e5H
	DD	01bbcH
	DD	01e10H
	DD	0169bH
	DD	0193bH
	DD	0e0H
	DD	0d8fH
	DD	026efH
	DD	01d97H
	DD	01423H
	DD	01e1bH
	DD	0202bH
	DD	01303H
	DD	01d4H
	DD	0341H
	DD	0167dH
	DD	01016H
	DD	0a9eH
	DD	01b9fH
	DD	01910H
	DD	01e66H
	DD	0b2dH
	DD	02431H
	DD	01441H
	DD	0186fH
	DD	0102eH
	DD	0920H
	DD	0de3H
	DD	06efH
	DD	0e76H
	DD	03a6H
	DD	02468H
	DD	0116eH
	DD	06d0H
	DD	07d3H
	DD	01513H
	DD	03b0H
	DD	014caH
	DD	0a7fH
	DD	01616H
	DD	021fcH
	DD	01355H
	DD	020d5H
	DD	015adH
	DD	0217eH
	DD	02043H
	DD	022f3H
	DD	010f2H
	DD	0320H
	DD	089aH
	DD	011e6H
	DD	02265H
	DD	04bcH
	DD	01d72H
	DD	0179H
	DD	0121fH
	DD	01f6eH
	DD	01724H
	DD	06cdH
	DD	0191dH
	DD	0152cH
	DD	01ea6H
	DD	020bH
	DD	0902H
	DD	01ef1H
	DD	01533H
	DD	015d2H
	DD	012cH
	DD	01c53H
	DD	02267H
	DD	016feH
	DD	082cH
	DD	01825H
	DD	029cH
	DD	02469H
	DD	0103aH
	DD	01a22H
	DD	06d3H
	DD	0151cH
	DD	06fdH
	DD	01d73H
	DD	01d92H
	DD	023fdH
	DD	0247aH
	DD	020H
	DD	01896H
	DD	01e2fH
	DD	02329H
	DD	016ddH
	DD	0226cH
	DD	0be3H
	DD	01aa5H
	DD	02044H
	DD	01313H
	DD	02adH
	DD	0fe0H
	DD	02179H
	DD	02340H
	DD	0f3dH
	DD	01183H
	DD	0243aH
	DD	011c5H
	DD	02522H
	DD	01d79H
	DD	063H
	DD	0525H
	DD	0155H
	DD	0141fH
	DD	010adH
	DD	02b2H
	DD	0fb6H
	DD	06edH
	DD	08c1H
	DD	0a4fH
	DD	0b1dH
	DD	01e2aH
	DD	0cc3H
	DD	01d0bH
	DD	016f8H
	DD	01c47H
	DD	01317H
	DD	0783H
	DD	01e3aH
	DD	02652H
	DD	0702H
	DD	0442H
	DD	07b4H
	DD	056cH
	DD	01d76H
	DD	0761H
	DD	02530H
	DD	09b8H
	DD	0ec2H
	DD	01fb8H
	DD	0c05H
	DD	0209fH
	DD	013e5H
	DD	0163dH
	DD	022baH
	DD	02238H
	DD	01e33H
	DD	01c18H
	DD	014fdH
	DD	01b7dH
	DD	012f1H
	DD	0821H
	DD	021b3H
	DD	01848H
	DD	01dc8H
	DD	07fcH
	DD	010ccH
	DD	01c82H
	DD	0dd4H
	DD	0371H
	DD	0137dH
	DD	01f2cH
	DD	0706H
	DD	0ee1H
	DD	0f1aH
	DD	0179bH
	DD	024f9H
	DD	0c9dH
	DD	0214dH
	DD	05ffH
	DD	0266H
	DD	08acH
	DD	01cc3H
	DD	0376H
	DD	01751H
	DD	016d7H
	DD	01de6H
	DD	0f3aH
	DD	014c8H
	DD	01f0bH
	DD	0f74H
	DD	01e17H
	DD	01e9H
	DD	01fe6H
	DD	093aH
	DD	01738H
	DD	08d6H
	DD	02b0H
	DD	02422H
	DD	01eceH
	DD	05f0H
	DD	0110bH
	DD	021e4H
	DD	057dH
	DD	02535H
	DD	02347H
	DD	01b8bH
	DD	01672H
	DD	02e8H
	DD	01de8H
	DD	01a1fH
	DD	089H
	DD	01e60H
	DD	0a2aH
	DD	0bd8H
	DD	0ee6H
	DD	01dbaH
	DD	01bc5H
	DD	0c7dH
	DD	0cc2H
	DD	0d80H
	DD	0210H
	DD	019beH
	DD	045dH
	DD	02caH
	DD	01d90H
	DD	025a9H
	DD	018f6H
	DD	078eH
	DD	0b68H
	DD	01907H
	DD	0190bH
	DD	05e2H
	DD	02317H
	DD	0509H
	DD	0190H
	DD	01739H
	DD	03ceH
	DD	04c3H
	DD	0328H
	DD	0127fH
	DD	022fcH
	DD	02508H
	DD	05cbH
	DD	02373H
	DD	05f1H
	DD	019faH
	DD	013e8H
	DD	046cH
	DD	0cbbH
	DD	01491H
	DD	01bf7H
	DD	0b77H
	DD	01ed2H
	DD	0d5aH
	DD	0f0H
	DD	0631H
	DD	0242H
	DD	01821H
	DD	03d0H
	DD	0101H
	DD	0f98H
	DD	023eaH
	DD	09afH
	DD	0ea4H
	DD	019cfH
	DD	0bb8H
	DD	02fbH
	DD	02072H
	DD	05c9H
	DD	01087H
	DD	0175cH
	DD	065dH
	DD	01d9dH
	DD	02693H
	DD	019c4H
	DD	05a2H
	DD	01c94H
	DD	0abcH
	DD	0845H
	DD	017bdH
	DD	024b5H
	DD	01d68H
	DD	093fH
	DD	0163fH
	DD	025e2H
	DD	02424H
	DD	05d7H
	DD	02035H
	DD	011c1H
	DD	0977H
	DD	01ad6H
	DD	01e4cH
	DD	01bf9H
	DD	01f55H
	DD	0150aH
	DD	0da1H
	DD	010e5H
	DD	0fc2H
	DD	010ecH
	DD	019eH
	DD	0b7aH
	DD	022a5H
	DD	026a6H
	DD	02393H
	DD	0118dH
	DD	01c40H
	DD	036eH
	DD	01c8fH
	DD	01500H
	DD	01e70H
	DD	0cc8H
	DD	077aH
	DD	015e9H
	DD	0a79H
	DD	0249fH
	DD	015f4H
	DD	02631H
	DD	0134H
	DD	06a7H
	DD	0137aH
	DD	0219fH
	DD	0122cH
	DD	017d8H
	DD	0101aH
	DD	012cdH
	DD	0d4H
	DD	02aeH
	DD	0160cH
	DD	01cb9H
	DD	012edH
	DD	01315H
	DD	0232aH
	DD	0515H
	DD	02002H
	DD	02640H
	DD	0256aH
	DD	02260H
	DD	016a3H
	DD	01251H
	DD	01660H
	DD	0308H
	DD	02506H
	DD	0583H
	DD	01038H
	DD	0679H
	DD	01199H
	DD	01cf5H
	DD	0212H
	DD	012c6H
	DD	0263aH
	DD	041fH
	DD	0f5dH
	DD	0beH
	DD	011f1H
	DD	01375H
	DD	01d47H
	DD	01ab2H
	DD	0f6fH
	DD	012bfH
	DD	0521H
	DD	0f50H
	DD	01402H
	DD	015ddH
	DD	01f26H
	DD	01aaaH
	DD	0e8bH
	DD	019b3H
	DD	01c21H
	DD	01927H
	DD	0255cH
	DD	056bH
	DD	0dc4H
	DD	0954H
	DD	018f3H
	DD	015eH
	DD	01d91H
	DD	0b5dH
	DD	0cf9H
	DD	0641H
	DD	01506H
	DD	0360H
	DD	0bfcH
	DD	01c24H
	DD	016baH
	DD	0196fH
	DD	01d00H
	DD	01d26H
	DD	04fdH
	DD	01fccH
	DD	021c1H
	DD	0238cH
	DD	0e64H
	DD	04e4H
	DD	025efH
	DD	01d05H
	DD	0b5cH
	DD	0302H
	DD	022aH
	DD	01539H
	DD	0bccH
	DD	01a74H
	DD	016d3H
	DD	025f2H
	DD	01527H
	DD	0238H
	DD	01b18H
	DD	01a30H
	DD	01a35H
	DD	01989H
	DD	01d34H
	DD	060bH
	DD	01ec5H
	DD	0903H
	DD	0134cH
	DD	01924H
	DD	014b0H
	DD	0177dH
	DD	01fc9H
	DD	0916H
	DD	01e1H
	DD	0842H
	DD	01089H
	DD	02211H
	DD	0c4fH
	DD	024cH
	DD	01eb5H
	DD	08f3H
	DD	01af1H
	DD	0adfH
	DD	01eabH
	DD	01490H
	DD	031dH
	DD	069bH
	DD	0eceH
	DD	014ecH
	DD	0f72H
	DD	01033H
	DD	023efH
	DD	02067H
	DD	013feH
	DD	0bd0H
	DD	01c11H
	DD	01f90H
	DD	015f0H
	DD	01842H
	DD	026c1H
	DD	0fcH
	DD	0585H
	DD	02653H
	DD	03b7H
	DD	0ad9H
	DD	01d99H
	DD	04e5H
	DD	02635H
	DD	018a5H
	DD	0c26H
	DD	01f4fH
	DD	0156dH
	DD	019b9H
	DD	01bc7H
	DD	0106fH
	DD	06e0H
	DD	022ddH
	DD	0252cH
	DD	0ac6H
	DD	0215H
	DD	074cH
	DD	0f20H
	DD	024ebH
	DD	01750H
	DD	0e8H
	DD	0653H
	DD	01b49H
	DD	02471H
	DD	01b67H
	DD	0d67H
	DD	01877H
	DD	0c1H
	DD	0ef3H
	DD	04c9H
	DD	01e15H
	DD	0e01H
	DD	083fH
	DD	04ecH
	DD	01f3dH
	DD	01098H
	DD	04a9H
	DD	0327H
	DD	0badH
	DD	018a2H
	DD	01845H
	DD	08d0H
	DD	01609H
	DD	01f3eH
	DD	018fbH
	DD	0156H
	DD	0157dH
	DD	01ce6H
	DD	0455H
	DD	01690H
	DD	0737H
	DD	095aH
	DD	02008H
	DD	01cb5H
	DD	012aeH
	DD	0568H
	DD	018c0H
	DD	01628H
	DD	021e8H
	DD	021adH
	DD	0885H
	DD	01228H
	DD	0d76H
	DD	0cdH
	DD	0742H
	DD	0684H
	DD	0121dH
	DD	01844H
	DD	02289H
	DD	048aH
	DD	024feH
	DD	01129H
	DD	01a05H
	DD	01997H
	DD	02116H
	DD	075dH
	DD	0157bH
	DD	02409H
	DD	0c0fH
	DD	01939H
	DD	08d4H
	DD	01e49H
	DD	021d5H
	DD	01289H
	DD	011aaH
	DD	01519H
	DD	031cH
	DD	01d87H
	DD	011b2H
	DD	011a5H
	DD	0228bH
	DD	014fH
	DD	015d3H
	DD	01e44H
	DD	0a71H
	DD	018eaH
	DD	01226H
	DD	0892H
	DD	01dc5H
	DD	02382H
	DD	0b91H
	DD	0e83H
	DD	016fdH
	DD	01430H
	DD	091fH
	DD	060fH
	DD	01b51H
	DD	042dH
	DD	0b2fH
	DD	02659H
	DD	025bbH
	DD	010e2H
	DD	0df9H
	DD	015dH
	DD	01d38H
	DD	06aeH
	DD	0a60H
	DD	025b1H
	DD	050bH
	DD	01d6bH
	DD	0983H
	DD	05edH
	DD	0186H
	DD	0662H
	DD	0180bH
	DD	0ac3H
	DD	047fH
	DD	02e2H
	DD	01b9dH
	DD	0182H
	DD	0bb3H
	DD	013a1H
	DD	01ebfH
	DD	01eaaH
	DD	0188H
	DD	015eaH
	DD	0543H
	DD	0246H
	DD	01383H
	DD	0b42H
	DD	01288H
	DD	01f4aH
	DD	0f9dH
	DD	02641H
	DD	0244fH
	DD	0174eH
	DD	01164H
	DD	0fe9H
	DD	0166eH
	DD	04dfH
	DD	0e36H
	DD	014d8H
	DD	06b3H
	DD	012b9H
	DD	0129bH
	DD	0401H
	DD	01107H
	DD	0174aH
	DD	0396H
	DD	0253bH
	DD	02276H
	DD	0154eH
	DD	01663H
	DD	03c9H
	DD	0830H
	DD	0209cH
	DD	014d6H
	DD	026caH
	DD	01836H
	DD	03ddH
	DD	0157fH
	DD	0c50H
	DD	023dcH
	DD	0a8eH
	DD	015fbH
	DD	02605H
	DD	0580H
	DD	0ed1H
	DD	085dH
	DD	012eH
	DD	017aaH
	DD	01233H
	DD	075H
	DD	060dH
	DD	03e9H
	DD	0385H
	DD	01279H
	DD	022fdH
	DD	0483H
	DD	0c6bH
	DD	01280H
	DD	01312H
	DD	01ed9H
	DD	01eeaH
	DD	01faaH
	DD	01962H
	DD	019a4H
	DD	0566H
	DD	015e0H
	DD	015d6H
	DD	0addH
	DD	01aceH
	DD	023b6H
	DD	01184H
	DD	0172dH
	DD	0f48H
	DD	0c6aH
	DD	022ecH
	DD	0c92H
	DD	0f6eH
	DD	013ceH
	DD	01e3fH
	DD	044eH
	DD	01b79H
	DD	012f6H
	DD	0a38H
	DD	019bbH
	DD	01c46H
	DD	01adfH
	DD	0e5eH
	DD	0a73H
	DD	0f27H
	DD	024aeH
	DD	04f0H
	DD	0f02H
	DD	01a6dH
	DD	022f2H
	DD	021f4H
	DD	0182eH
	DD	014d4H
	DD	016d9H
	DD	02085H
	DD	09c0H
	DD	0a59H
	DD	01c07H
	DD	0fbcH
	DD	02beH
	DD	0110fH
	DD	0a9dH
	DD	0542H
	DD	01b5aH
	DD	01ee8H
	DD	01b0dH
	DD	016f5H
	DD	01414H
	DD	01433H
	DD	018efH
	DD	01009H
	DD	01ac3H
	DD	0e0aH
	DD	09d1H
	DD	01496H
	DD	036aH
	DD	0c25H
	DD	055bH
	DD	01e6bH
	DD	0251eH
	DD	0752H
	DD	051aH
	DD	023b7H
	DD	01477H
	DD	026edH
	DD	01a2dH
	DD	02250H
	DD	040eH
	DD	075cH
	DD	01c58H
	DD	022eeH
	DD	0161fH
	DD	0c1eH
	DD	01801H
	DD	01a06H
	DD	01c50H
	DD	0832H
	DD	013eaH
	DD	01c5aH
	DD	01e13H
	DD	0249dH
	DD	028bH
	DD	085H
	DD	018ebH
	DD	02549H
	DD	01df5H
	DD	0980H
	DD	0945H
	DD	0147eH
	DD	0125eH
	DD	022a7H
	DD	018e0H
	DD	01c2dH
	DD	021b0H
	DD	015f8H
	DD	02198H
	DD	01d32H
	DD	01548H
	DD	0b82H
	DD	0239eH
	DD	0427H
	DD	0ccbH
	DD	012e4H
	DD	04adH
	DD	078aH
	DD	01daH
	DD	04cfH
	DD	04a2H
	DD	0e4dH
	DD	01583H
	DD	029dH
	DD	01784H
	DD	0dc7H
	DD	0ab1H
	DD	0799H
	DD	011b3H
	DD	02221H
	DD	0156aH
	DD	05b8H
	DD	010aaH
	DD	012efH
	DD	01bcaH
	DD	02073H
	DD	0d1dH
	DD	0d69H
	DD	0cc4H
	DD	0851H
	DD	017b4H
	DD	019baH
	DD	0b7dH
	DD	01c8eH
	DD	06dfH
	DD	0647H
	DD	01998H
	DD	01c74H
	DD	0324H
	DD	0edfH
	DD	01e26H
	DD	07dfH
	DD	025f1H
	DD	01e07H
	DD	01ac0H
	DD	01133H
	DD	093cH
	DD	0166fH
	DD	020e3H
	DD	01d7cH
	DD	015feH
	DD	01cfaH
	DD	0eb7H
	DD	06e1H
	DD	017aH
	DD	0ef2H
	DD	021e2H
	DD	0215fH
	DD	01083H
	DD	01a24H
	DD	02056H
	DD	0bdaH
	DD	01d04H
	DD	018f0H
	DD	01ff2H
	DD	076aH
	DD	04eaH
	DD	013eH
	DD	0bf4H
	DD	0ed2H
	DD	0ac5H
	DD	01efH
	DD	0c0aH
	DD	0e1dH
	DD	01e52H
	DD	01565H
	DD	023b3H
	DD	08bfH
	DD	0e3dH
	DD	01664H
	DD	01483H
	DD	01262H
	DD	018e9H
	DD	0848H
	DD	01f8H
	DD	024bfH
	DD	041dH
	DD	026e6H
	DD	01f54H
	DD	01610H
	DD	04ffH
	DD	0a18H
	DD	01a6eH
	DD	075aH
	DD	024cdH
	DD	02351H
	DD	01f2fH
	DD	0c42H
	DD	02337H
	DD	0260fH
	DD	0d41H
	DD	02efH
	DD	0c73H
	DD	0333H
	DD	081bH
	DD	021bcH
	DD	0d36H
	DD	0135H
	DD	01855H
	DD	01edbH
	DD	014ccH
	DD	043dH
	DD	0f3fH
	DD	01656H
	DD	049aH
	DD	0b78H
	DD	081fH
	DD	0677H
	DD	088eH
	DD	016bdH
	DD	01882H
	DD	01161H
	DD	01d8aH
	DD	0c44H
	DD	011a3H
	DD	01c62H
	DD	0a93H
	DD	021bH
	DD	01c2cH
	DD	020c6H
	DD	096cH
	DD	0265cH
	DD	0d77H
	DD	06a8H
	DD	01d2H
	DD	099fH
	DD	0e9dH
	DD	085bH
	DD	02009H
	DD	0888H
	DD	02622H
	DD	01a56H
	DD	0116bH
	DD	012f2H
	DD	0257bH
	DD	01843H
	DD	01e06H
	DD	01534H
	DD	0890H
	DD	02344H
	DD	01b8cH
	DD	01a33H
	DD	01c2aH
	DD	0159H
	DD	0d5eH
	DD	01ba4H
	DD	02194H
	DD	0bfaH
	DD	0e2eH
	DD	01c1fH
	DD	0ffH
	DD	0e27H
	DD	0a23H
	DD	02576H
	DD	0180cH
	DD	02137H
	DD	01622H
	DD	01255H
	DD	0dcbH
	DD	0138dH
	DD	0490H
	DD	02169H
	DD	02675H
	DD	04c8H
	DD	0795H
	DD	01ed8H
	DD	0557H
	DD	048bH
	DD	01be9H
	DD	0230dH
	DD	025eaH
	DD	01210H
	DD	012f4H
	DD	09ccH
	DD	0ddcH
	DD	01d20H
	DD	01e2cH
	DD	025baH
	DD	0b3cH
	DD	01d29H
	DD	019bdH
	DD	01991H
	DD	0b81H
	DD	023a2H
	DD	0306H
	DD	0113H
	DD	0a16H
	DD	01eaH
	DD	0f88H
	DD	01e63H
	DD	02228H
	DD	06bH
	DD	0545H
	DD	023ccH
	DD	01f23H
	DD	05baH
	DD	0230H
	DD	02010H
	DD	01d5H
	DD	02bfH
	DD	012dbH
	DD	01941H
	DD	025b3H
	DD	036H
	DD	01d31H
	DD	0177bH
	DD	097bH
	DD	0716H
	DD	041aH
	DD	01106H
	DD	0852H
	DD	0208aH
	DD	0be7H
	DD	01be8H
	DD	025f7H
	DD	01f34H
	DD	01ce1H
	DD	08f9H
	DD	0ba2H
	DD	0264fH
	DD	040fH
	DD	02227H
	DD	017deH
	DD	023feH
	DD	01dd6H
	DD	020ceH
	DD	081aH
	DD	0949H
	DD	023edH
	DD	0f1dH
	DD	012c5H
	DD	0248aH
	DD	0a20H
	DD	04d1H
	DD	01b53H
	DD	0267cH
	DD	02646H
	DD	048eH
	DD	016e0H
	DD	02511H
	DD	0bacH
	DD	0221fH
	DD	01a00H
	DD	0267eH
	DD	0c67H
	DD	030bH
	DD	010dfH
	DD	0b09H
	DD	01eb4H
	DD	015f6H
	DD	0203fH
	DD	0472H
	DD	0c66H
	DD	0105dH
	DD	0151fH
	DD	0115eH
	DD	01a04H
	DD	015fH
	DD	080aH
	DD	01c1aH
	DD	0e25H
	DD	01b1dH
	DD	01703H
	DD	0227dH
	DD	024e0H
	DD	0a77H
	DD	0108aH
	DD	01872H
	DD	0d53H
	DD	080fH
	DD	024c5H
	DD	01a9dH
	DD	010ffH
	DD	01d51H
	DD	0bdbH
	DD	0172aH
	DD	014f5H
	DD	0f4aH
	DD	01f09H
	DD	01580H
	DD	02182H
	DD	01dcdH
	DD	01ffaH
	DD	026b4H
	DD	0edeH
	DD	0e35H
	DD	021cbH
	DD	01bd9H
	DD	0214fH
	DD	026a7H
	DD	01400H
	DD	07e4H
	DD	097cH
	DD	02216H
	DD	024caH
	DD	023f9H
	DD	0e07H
	DD	018d7H
	DD	0d4bH
	DD	01eb7H
	DD	0c29H
	DD	0232dH
	DD	0c89H
	DD	01266H
	DD	0b1eH
	DD	0106bH
	DD	0187H
	DD	0739H
	DD	0258dH
	DD	0114fH
	DD	01af5H
	DD	0912H
	DD	0c99H
	DD	01269H
	DD	080H
	DD	01f5dH
	DD	0f11H
	DD	0941H
	DD	0315H
	DD	01a47H
	DD	02624H
	DD	0e81H
	DD	026c3H
	DD	065cH
	DD	01100H
	DD	08e7H
	DD	019aaH
	DD	0639H
	DD	01386H
	DD	01759H
	DD	022a3H
	DD	0259aH
	DD	02295H
	DD	0100dH
	DD	01e67H
	DD	066fH
	DD	01fH
	DD	0b17H
	DD	01425H
	DD	013d2H
	DD	01054H
	DD	0cf6H
	DD	0a78H
	DD	059fH
	DD	0dc8H
	DD	010beH
	DD	017f1H
	DD	02007H
	DD	0125fH
	DD	0d85H
	DD	01a80H
	DD	014e9H
	DD	0133aH
	DD	0a91H
	DD	0617H
	DD	02098H
	DD	02252H
	DD	01dc6H
	DD	01819H
	DD	01a92H
	DD	0f6aH
	DD	01b32H
	DD	01e8dH
	DD	045eH
	DD	01285H
	DD	01817H
	DD	01298H
	DD	026a3H
	DD	0d5H
	DD	01926H
	DD	08bbH
	DD	0193cH
	DD	01482H
	DD	0c16H
	DD	0a9H
	DD	04deH
	DD	022dfH
	DD	017fH
	DD	0e42H
	DD	01e1fH
	DD	066H
	DD	02218H
	DD	0200dH
	DD	010abH
	DD	02015H
	DD	0fc7H
	DD	0216dH
	DD	0d7aH
	DD	01be2H
	DD	01e40H
	DD	01d1aH
	DD	0e90H
	DD	01c2H
	DD	025fbH
	DD	0f28H
	DD	0c1cH
	DD	01757H
	DD	010ceH
	DD	0a2dH
	DD	06d8H
	DD	05aH
	DD	070aH
	DD	020aaH
	DD	0474H
	DD	03bH
	DD	01a27H
	DD	01c9cH
	DD	0529H
	DD	0d65H
	DD	0964H
	DD	02555H
	DD	01852H
	DD	01f4H
	DD	07f5H
	DD	0183bH
	DD	01247H
	DD	047dH
	DD	01b3bH
	DD	04d6H
	DD	0233fH
	DD	026d4H
	DD	0dc9H
	DD	01b96H
	DD	025aH
	DD	0166aH
	DD	0c6eH
	DD	0256fH
	DD	0b11H
	DD	0119fH
	DD	0468H
	DD	04H
	DD	070cH
	DD	0603H
	DD	01a3cH
	DD	01d21H
	DD	01472H
	DD	01da7H
	DD	017f6H
	DD	056aH
	DD	01dcH
	DD	0ed5H
	DD	02f5H
	DD	0217H
	DD	07cfH
	DD	01223H
	DD	01671H
	DD	0117H
	DD	01f10H
	DD	01d3aH
	DD	0d39H
	DD	0bf8H
	DD	0569H
	DD	0239bH
	DD	01e29H
	DD	022e3H
	DD	01520H
	DD	019a6H
	DD	0da0H
	DD	01eadH
	DD	0eH
	DD	01a3bH
	DD	092fH
	DD	013f4H
	DD	03c4H
	DD	024b7H
	DD	01481H
	DD	01e18H
	DD	043cH
	DD	0228H
	DD	016e6H
	DD	0165eH
	DD	0f7eH
	DD	01fc5H
	DD	01cceH
	DD	038aH
	DD	0c1aH
	DD	01bfaH
	DD	0109eH
	DD	0aedH
	DD	0113aH
	DD	0185dH
	DD	01ca7H
	DD	02177H
	DD	01eb1H
	DD	017c5H
	DD	089eH
	DD	0bd5H
	DD	01b46H
	DD	0abdH
	DD	01c5cH
	DD	021ccH
	DD	025c6H
	DD	06f7H
	DD	023e0H
	DD	019cbH
	DD	0252H
	DD	01be5H
	DD	0c47H
	DD	07ccH
	DD	01323H
	DD	02500H
	DD	01484H
	DD	01a50H
	DD	0db6H
	DD	0bb0H
	DD	01272H
	DD	0cfeH
	DD	0135aH
	DD	0321H
	DD	01f07H
	DD	061fH
	DD	029eH
	DD	072H
	DD	02634H
	DD	02557H
	DD	0d6H
	DD	03d2H
	DD	01470H
	DD	0406H
	DD	0b9bH
	DD	0152bH
	DD	019fH
	DD	02356H
	DD	018e1H
	DD	01d9eH
	DD	01a0eH
	DD	0157aH
	DD	01930H
	DD	01160H
	DD	01354H
	DD	07a4H
	DD	01d30H
	DD	01aeH
	DD	0224aH
	DD	0177H
	DD	0471H
	DD	01fb2H
	DD	025a1H
	DD	02076H
	DD	02662H
	DD	03c6H
	DD	0ed8H
	DD	01369H
	DD	024d9H
	DD	01e57H
	DD	018d6H
	DD	04b6H
	DD	010e0H
	DD	023e2H
	DD	01bb6H
	DD	018d5H
	DD	025faH
	DD	0bc8H
	DD	0d1fH
	DD	0c74H
	DD	01ac4H
	DD	0103fH
	DD	026b3H
	DD	0a05H
	DD	016e3H
	DD	0192fH
	DD	01b27H
	DD	018afH
	DD	01e59H
	DD	01f63H
	DD	017eeH
	DD	0f1cH
	DD	0425H
	DD	015cdH
	DD	0bc1H
	DD	0d60H
	DD	01c68H
	DD	03a9H
	DD	01d16H
	DD	039fH
	DD	0a8fH
	DD	021c9H
	DD	0629H
	DD	01408H
	DD	0aH
	DD	0bf0H
	DD	01de2H
	DD	01ab1H
	DD	065aH
	DD	04c0H
	DD	015cbH
	DD	0239dH
	DD	0165H
	DD	0efeH
	DD	01567H
	DD	010b1H
	DD	069fH
	DD	0a3cH
	DD	01324H
	DD	01947H
	DD	020dcH
	DD	0bdH
	DD	01b95H
	DD	01a71H
	DD	026baH
	DD	0191bH
	DD	0312H
	DD	02acH
	DD	07c0H
	DD	014a9H
	DD	016b2H
	DD	031eH
	DD	02292H
	DD	0713H
	DD	01234H
	DD	0f3bH
	DD	016ecH
	DD	01cd9H
	DD	01efbH
	DD	0db8H
	DD	0392H
	DD	0678H
	DD	0a19H
	DD	05fH
	DD	0261H
	DD	01a3H
	DD	0194H
	DD	01c83H
	DD	0127dH
	DD	01ecfH
	DD	01beaH
	DD	01625H
	DD	01c48H
	DD	09e6H
	DD	0260bH
	DD	0588H
	DD	0e2cH
	DD	018c8H
	DD	0594H
	DD	0137fH
	DD	03aeH
	DD	0a45H
	DD	06ecH
	DD	02fH
	DD	01464H
	DD	020c5H
	DD	0cfaH
	DD	05eaH
	DD	0114aH
	DD	01940H
	DD	013fbH
	DD	0141dH
	DD	0bb5H
	DD	023daH
	DD	020faH
	DD	02433H
	DD	01871H
	DD	0906H
	DD	02055H
	DD	01b4dH
	DD	0157cH
	DD	0123cH
	DD	02025H
	DD	035H
	DD	07bfH
	DD	04e7H
	DD	01e36H
	DD	01c0aH
	DD	09e9H
	DD	01b60H
	DD	020f3H
	DD	01804H
	DD	0123eH
	DD	0d29H
	DD	0270bH
	DD	01b73H
	DD	0fb7H
	DD	01a7cH
	DD	01cd6H
	DD	01c86H
	DD	01aa4H
	DD	01557H
	DD	01b12H
	DD	0f61H
	DD	02206H
	DD	0165aH
	DD	0e7fH
	DD	0168H
	DD	0118eH
	DD	02440H
	DD	020d6H
	DD	01a45H
	DD	013bH
	DD	02fcH
	DD	0168eH
	DD	06cbH
	DD	0c52H
	DD	01bbeH
	DD	01376H
	DD	0102cH
	DD	0203bH
	DD	042fH
	DD	087fH
	DD	010b2H
	DD	0232fH
	DD	011dfH
	DD	01a4cH
	DD	01b28H
	DD	01bb7H
	DD	0d70H
	DD	06e6H
	DD	0248bH
	DD	07f6H
	DD	01697H
	DD	0158aH
	DD	01090H
	DD	0204dH
	DD	03caH
	DD	01f72H
	DD	0bafH
	DD	02141H
	DD	01156H
	DD	01701H
	DD	0148H
	DD	070dH
	DD	01beeH
	DD	0100eH
	DD	019d8H
	DD	028H
	DD	01d54H
	DD	073dH
	DD	08c6H
	DD	021fdH
	DD	03c1H
	DD	01e71H
	DD	019e5H
	DD	0168dH
	DD	01290H
	DD	01308H
	DD	01d9bH
	DD	01d61H
	DD	01d23H
	DD	0b48H
	DD	08f5H
	DD	014bH
	DD	0223dH
	DD	01a54H
	DD	020c0H
	DD	0205bH
	DD	01c44H
	DD	01586H
	DD	01c20H
	DD	0254eH
	DD	033dH
	DD	01fa4H
	DD	0925H
	DD	01867H
	DD	01c16H
	DD	0e1fH
	DD	0e9H
	DD	01d4fH
	DD	025f8H
	DD	01ce0H
	DD	0e71H
	DD	01f94H
	DD	02178H
	DD	0386H
	DD	0553H
	DD	024dfH
	DD	0125bH
	DD	019ceH
	DD	026faH
	DD	02413H
	DD	01f11H
	DD	0ccH
	DD	0110aH
	DD	01bbbH
	DD	022H
	DD	0165cH
	DD	0731H
	DD	01394H
	DD	02699H
	DD	0878H
	DD	01f4bH
	DD	099dH
	DD	020bdH
	DD	0170dH
	DD	02029H
	DD	0e62H
	DD	015dfH
	DD	0285H
	DD	0a3H
	DD	021bdH
	DD	01b35H
	DD	0dedH
	DD	0120cH
	DD	01b47H
	DD	023e1H
	DD	01cb1H
	DD	01e2bH
	DD	0102dH
	DD	015ceH
	DD	013cdH
	DD	0850H
	DD	024dcH
	DD	01f1H
	DD	09cbH
	DD	062H
	DD	0485H
	DD	0ba6H
	DD	0f65H
	DD	01e99H
	DD	0a21H
	DD	013abH
	DD	02174H
	DD	0722H
	DD	02342H
	DD	026c9H
	DD	01bf6H
	DD	02139H
	DD	024daH
	DD	0988H
	DD	02584H
	DD	0417H
	DD	01052H
	DD	0f23H
	DD	0d51H
	DD	0225aH
	DD	01002H
	DD	0f76H
	DD	015b7H
	DD	0372H
	DD	0aabH
	DD	076cH
	DD	01b57H
	DD	019ccH
	DD	01b16H
	DD	02fdH
	DD	0807H
	DD	0105aH
	DD	0966H
	DD	016efH
	DD	025b5H
	DD	0bd4H
	DD	02513H
	DD	0161bH
	DD	0185bH
	DD	01851H
	DD	0389H
	DD	02389H
	DD	0b59H
	DD	012e6H
	DD	09cdH
	DD	026bcH
	DD	021ecH
	DD	01537H
	DD	01d10H
	DD	01d7aH
	DD	056dH
	DD	0cddH
	DD	01846H
	DD	0815H
	DD	01e96H
	DD	0a1cH
	DD	0babH
	DD	02460H
	DD	0c2bH
	DD	025c3H
	DD	02129H
	DD	0befH
	DD	0fbbH
	DD	035fH
	DD	0223aH
	DD	091eH
	DD	01412H
	DD	0fd5H
	DD	0123aH
	DD	011e8H
	DD	019c9H
	DD	0176cH
	DD	01ae9H
	DD	02298H
	DD	0e85H
	DD	068H
	DD	094cH
	DD	01546H
	DD	010c1H
	DD	058bH
	DD	0218fH
	DD	0b0dH
	DD	0be6H
	DD	0bceH
	DD	07dbH
	DD	0134bH
	DD	01b38H
	DD	02e1H
	DD	07edH
	DD	01c04H
	DD	0381H
	DD	0998H
	DD	0900H
	DD	01904H
	DD	04d5H
	DD	0236eH
	DD	020ddH
	DD	01fbcH
	DD	017e2H
	DD	093eH
	DD	0218bH
	DD	084cH
	DD	06f6H
	DD	08e1H
	DD	0234fH
	DD	01ac7H
	DD	01ad9H
	DD	081eH
	DD	02580H
	DD	016f2H
	DD	09bdH
	DD	01d94H
	DD	0fe2H
	DD	0236bH
	DD	06f5H
	DD	065bH
	DD	05d0H
	DD	01306H
	DD	026ceH
	DD	02215H
	DD	01c29H
	DD	0d6fH
	DD	01f8fH
	DD	0a24H
	DD	0f1fH
	DD	024cbH
	DD	02328H
	DD	0cf1H
	DD	07a1H
	DD	01384H
	DD	079H
	DD	09fbH
	DD	0567H
	DD	01789H
	DD	01c54H
	DD	01405H
	DD	02120H
	DD	0255bH
	DD	017e8H
	DD	0193fH
	DD	03b8H
	DD	0d7cH
	DD	0452H
	DD	01518H
	DD	089fH
	DD	01acbH
	DD	01bccH
	DD	01652H
	DD	0875H
	DD	019fcH
	DD	012c1H
	DD	01019H
	DD	0756H
	DD	01931H
	DD	016faH
	DD	01d2eH
	DD	0280H
	DD	0225cH
	DD	02053H
	DD	01c45H
	DD	01050H
	DD	0b7fH
	DD	01812H
	DD	0b6H
	DD	0219eH
	DD	0142cH
	DD	0624H
	DD	0222eH
	DD	0bb1H
	DD	0bc5H
	DD	02249H
	DD	0592H
	DD	0237H
	DD	0db9H
	DD	023cfH
	DD	01535H
	DD	0251H
	DD	014beH
	DD	0e32H
	DD	02033H
	DD	012c8H
	DD	0d5fH
	DD	0831H
	DD	0570H
	DD	0325H
	DD	02498H
	DD	01ff4H
	DD	01120H
	DD	0df7H
	DD	0891H
	DD	0112dH
	DD	01528H
	DD	0e6eH
	DD	023d9H
	DD	0af4H
	DD	0110eH
	DD	01476H
	DD	0c5dH
	DD	0ddbH
	DD	023f0H
	DD	026ecH
	DD	0222aH
	DD	0147dH
	DD	0129eH
	DD	01203H
	DD	0220dH
	DD	0616H
	DD	01488H
	DD	02159H
	DD	0161dH
	DD	0cd2H
	DD	0235aH
	DD	01b3eH
	DD	016c2H
	DD	02081H
	DD	0259dH
	DD	026deH
	DD	0209dH
	DD	024c8H
	DD	02028H
	DD	0887H
	DD	01d35H
	DD	014f1H
	DD	024f2H
	DD	013f3H
	DD	0c5bH
	DD	01377H
	DD	0601H
	DD	014a5H
	DD	0199dH
	DD	01494H
	DD	0801H
	DD	0265bH
	DD	02540H
	DD	02562H
	DD	0184cH
	DD	0f8fH
	DD	01c64H
	DD	0208cH
	DD	01cc4H
	DD	060cH
	DD	0abfH
	DD	0431H
	DD	01c05H
	DD	01060H
	DD	021faH
	DD	01c5bH
	DD	0444H
	DD	0688H
	DD	03a5H
	DD	0612H
	DD	01718H
	DD	0558H
	DD	057aH
	DD	0243eH
	DD	0260eH
	DD	09e5H
	DD	0802H
	DD	0223fH
	DD	0df4H
	DD	022c1H
	DD	04bH
	DD	02650H
	DD	0770H
	DD	0143bH
	DD	0e49H
	DD	07d4H
	DD	0146fH
	DD	025ccH
	DD	018c6H
	DD	0528H
	DD	01004H
	DD	0f6H
	DD	0190dH
	DD	015e6H
	DD	021d8H
	DD	01ea2H
	DD	01919H
	DD	02470H
	DD	0ff9H
	DD	0294H
	DD	012f7H
	DD	01e62H
	DD	01acfH
	DD	0b1fH
	DD	0638H
	DD	0d91H
	DD	0b05H
	DD	0c61H
	DD	026ddH
	DD	018cbH
	DD	0ce0H
	DD	0e70H
	DD	01a31H
	DD	0ed9H
	DD	09a2H
	DD	01022H
	DD	0e4bH
	DD	0ebdH
	DD	01f36H
	DD	0d49H
	DD	01608H
	DD	0108H
	DD	097aH
	DD	0221eH
	DD	0ceaH
	DD	01410H
	DD	02108H
	DD	025e9H
	DD	0373H
	DD	0f95H
	DD	013cH
	DD	0119bH
	DD	09baH
	DD	0235eH
	DD	01fa5H
	DD	017d5H
	DD	0145eH
	DD	016fH
	DD	0d27H
	DD	02b8H
	DD	01c0eH
	DD	01061H
	DD	01caaH
	DD	02ffH
	DD	0f2cH
	DD	01330H
	DD	0305H
	DD	03baH
	DD	01af2H
	DD	0574H
	DD	0252aH
	DD	0c71H
	DD	014e6H
	DD	013dbH
	DD	016f7H
	DD	019c8H
	DD	03d5H
	DD	0a7eH
	DD	0546H
	DD	0ee5H
	DD	0d45H
	DD	087eH
	DD	02330H
	DD	0649H
	DD	024c0H
	DD	02691H
	DD	0322H
	DD	0eefH
	DD	040dH
	DD	0185aH
	DD	024c9H
	DD	01e8aH
	DD	0195H
	DD	0fdfH
	DD	021c6H
	DD	0eeaH
	DD	0f96H
	DD	018baH
	DD	02c7H
	DD	0432H
	DD	017d9H
	DD	09aH
	DD	01eddH
	DD	01ec7H
	DD	0172fH
	DD	011e4H
	DD	065fH
	DD	02064H
	DD	02514H
	DD	08fH
	DD	04b1H
	DD	0200cH
	DD	0578H
	DD	04caH
	DD	01e87H
	DD	03fdH
	DD	0a84H
	DD	018d3H
	DD	01422H
	DD	04ccH
	DD	018ecH
	DD	0cd6H
	DD	019bH
	DD	0218aH
	DD	02649H
	DD	01b81H
	DD	01797H
	DD	035bH
	DD	022ceH
	DD	03cdH
	DD	0220cH
	DD	01d45H
	DD	01e6aH
	DD	0aa5H
	DD	01385H
	DD	0252dH
	DD	02430H
	DD	0c23H
	DD	0828H
	DD	0e5cH
	DD	0f67H
	DD	01699H
	DD	0a66H
	DD	02417H
	DD	0ba0H
	DD	020d0H
	DD	016dbH
	DD	01be1H
	DD	017bH
	DD	08b6H
	DD	01d8dH
	DD	0b60H
	DD	0234cH
	DD	057H
	DD	024e1H
	DD	06afH
	DD	0ff1H
	DD	031bH
	DD	01aafH
	DD	08edH
	DD	02074H
	DD	01a61H
	DD	0d88H
	DD	0178fH
	DD	01a5H
	DD	0131cH
	DD	02bH
	DD	02501H
	DD	01c73H
	DD	0f3eH
	DD	02d4H
	DD	0390H
	DD	01c67H
	DD	0b9dH
	DD	0cd1H
	DD	0cacH
	DD	05abH
	DD	0251fH
	DD	0e82H
	DD	0cf8H
	DD	0da7H
	DD	0798H
	DD	024c2H
	DD	012caH
	DD	026eeH
	DD	02234H
	DD	035dH
	DD	011f8H
	DD	01ef5H
	DD	015cfH
	DD	0d63H
	DD	024e7H
	DD	026c8H
	DD	02181H
	DD	025ffH
	DD	0b39H
	DD	0ad3H
	DD	0d4cH
	DD	011edH
	DD	0289H
	DD	01498H
	DD	02437H
	DD	0dd3H
	DD	0262aH
	DD	021dcH
	DD	0a96H
	DD	01b62H
	DD	0ec4H
	DD	010e6H
	DD	01202H
	DD	05b9H
	DD	05ebH
	DD	0e34H
	DD	0d28H
	DD	0164dH
	DD	014b9H
	DD	01079H
	DD	016a6H
	DD	0927H
	DD	08c5H
	DD	025c1H
	DD	0245H
	DD	0df8H
	DD	022faH
	DD	0235H
	DD	0c27H
	DD	055aH
	DD	0181aH
	DD	07f8H
	DD	01fceH
	DD	01a81H
	DD	01e5bH
	DD	018d2H
	DD	01591H
	DD	060H
	DD	01dd5H
	DD	02ddH
	DD	02037H
	DD	025a6H
	DD	0181fH
	DD	0207bH
	DD	01aeaH
	DD	014daH
	DD	0362H
	DD	0216eH
	DD	03f3H
	DD	0186cH
	DD	01a86H
	DD	0166bH
	DD	01f33H
	DD	01475H
	DD	01171H
	DD	01551H
	DD	0f80H
	DD	044bH
	DD	0b5aH
	DD	0b6cH
	DD	01e04H
	DD	01ceeH
	DD	01d85H
	DD	01c36H
	DD	0de1H
	DD	02619H
	DD	07afH
	DD	011b7H
	DD	01b78H
	DD	0126eH
	DD	0345H
	DD	09beH
	DD	0a55H
	DD	01b92H
	DD	02607H
	DD	023ebH
	DD	01a0bH
	DD	01a23H
	DD	01881H
	DD	04e0H
	DD	084bH
	DD	0d3dH
	DD	0b65H
	DD	01a1cH
	DD	01f8dH
	DD	02026H
	DD	02603H
	DD	0201eH
	DD	0192H
	DD	011f9H
	DD	025aeH
	DD	01e0dH
	DD	0149cH
	DD	02b6H
	DD	01a40H
	DD	0fa6H
	DD	099cH
	DD	02103H
	DD	02639H
	DD	01d82H
	DD	04d7H
	DD	01fd0H
	DD	0129H
	DD	023aeH
	DD	0a44H
	DD	01549H
	DD	01221H
	DD	01393H
	DD	0971H
	DD	06b7H
	DD	02021H
	DD	02604H
	DD	01eaeH
	DD	0123fH
	DD	01e21H
	DD	024e2H
	DD	01fdfH
	DD	01c3cH
	DD	0778H
	DD	06dH
	DD	02491H
	DD	01322H
	DD	01398H
	DD	016c5H
	DD	02105H
	DD	08d1H
	DD	0124cH
	DD	087aH
	DD	0b12H
	DD	0f29H
	DD	0a6eH
	DD	014a0H
	DD	01979H
	DD	054H
	DD	01bceH
	DD	098fH
	DD	01bb8H
	DD	0d3cH
	DD	059bH
	DD	0bH
	DD	0a5aH
	DD	024f3H
	DD	02263H
	DD	01192H
	DD	02143H
	DD	0a28H
	DD	07a0H
	DD	0115aH
	DD	02464H
	DD	01075H
	DD	01b70H
	DD	045bH
	DD	0e9fH
	DD	01cdaH
	DD	020daH
	DD	01defH
	DD	07f3H
	DD	02615H
	DD	01bdcH
	DD	01cc6H
	DD	0216cH
	DD	01db8H
	DD	01761H
	DD	0216bH
	DD	0199fH
	DD	01b2dH
	DD	01080H
	DD	0cfcH
	DD	01f76H
	DD	0fbaH
	DD	013dcH
	DD	08d9H
	DD	01cb6H
	DD	0611H
	DD	01115H
	DD	013f2H
	DD	02401H
	DD	022beH
	DD	0facH
	DD	017beH
	DD	09aaH
	DD	0284H
	DD	022eaH
	DD	0e10H
	DD	0220eH
	DD	0645H
	DD	05f4H
	DD	0d4fH
	DD	026ccH
	DD	018b2H
	DD	01563H
	DD	0e44H
	DD	01958H
	DD	01091H
	DD	025e0H
	DD	01c56H
	DD	0674H
	DD	08beH
	DD	0207fH
	DD	025aaH
	DD	0fd4H
	DD	0c17H
	DD	01764H
	DD	0b32H
	DD	0928H
	DD	0dfcH
	DD	01032H
	DD	014d7H
	DD	02136H
	DD	06aH
	DD	099eH
	DD	0181cH
	DD	0577H
	DD	0f43H
	DD	01be0H
	DD	01f97H
	DD	0976H
	DD	02595H
	DD	01912H
	DD	014c0H
	DD	01bbdH
	DD	01b6H
	DD	0126H
	DD	025b7H
	DD	0ae1H
	DD	0f55H
	DD	0613H
	DD	030eH
	DD	0a95H
	DD	0faH
	DD	018f9H
	DD	025bcH
	DD	01893H
	DD	025caH
	DD	010c2H
	DD	01bc4H
	DD	049H
	DD	024ceH
	DD	0979H
	DD	010e8H
	DD	02201H
	DD	01445H
	DD	01caH
	DD	0930H
	DD	0158bH
	DD	0250aH
	DD	01a52H
	DD	02062H
	DD	0141aH
	DD	01302H
	DD	026f9H
	DD	03eaH
	DD	01207H
	DD	09a4H
	DD	016cH
	DD	0263dH
	DD	015b1H
	DD	026f1H
	DD	01972H
	DD	023b2H
	DD	01e5cH
	DD	010baH
	DD	02138H
	DD	0475H
	DD	022a9H
	DD	014cH
	DD	0210fH
	DD	01729H
	DD	07e9H
	DD	07caH
	DD	01dfH
	DD	017d7H
	DD	0135fH
	DD	03f4H
	DD	01cbbH
	DD	020caH
	DD	07f2H
	DD	0189cH
	DD	01a1eH
	DD	02677H
	DD	0d4dH
	DD	0dbH
	DD	01639H
	DD	011daH
	DD	019dbH
	DD	01b76H
	DD	061eH
	DD	01e6cH
	DD	01fa2H
	DD	01c51H
	DD	0eccH
	DD	016acH
	DD	01f6cH
	DD	0bffH
	DD	0158cH
	DD	023fH
	DD	0227bH
	DD	08faH
	DD	01849H
	DD	01378H
	DD	0379H
	DD	02ebH
	DD	0efaH
	DD	06c4H
	DD	011d4H
	DD	0433H
	DD	077eH
	DD	0d64H
	DD	01a5eH
	DD	01aefH
	DD	0e2bH
	DD	0130H
	DD	011dH
	DD	0d57H
	DD	0262cH
	DD	0101eH
	DD	01792H
	DD	02443H
	DD	02577H
	DD	0304H
	DD	0ecbH
	DD	0318H
	DD	018a1H
	DD	0c9aH
	DD	06ddH
	DD	01158H
	DD	011caH
	DD	013a4H
	DD	01eb0H
	DD	01752H
	DD	018acH
	DD	0cb2H
	DD	02095H
	DD	0957H
	DD	010dcH
	DD	0989H
	DD	01e1aH
	DD	0b8dH
	DD	03adH
	DD	01da3H
	DD	0223H
	DD	0f62H
	DD	01c8aH
	DD	0e95H
	DD	018d1H
	DD	0195dH
	DD	01709H
	DD	021e9H
	DD	0254aH
	DD	0c54H
	DD	047bH
	DD	01329H
	DD	02300H
	DD	019a8H
	DD	01edfH
	DD	021a5H
	DD	01682H
	DD	0d31H
	DD	01ffdH
	DD	01908H
	DD	01963H
	DD	01a46H
	DD	01e4H
	DD	06b1H
	DD	01fbaH
	DD	05e5H
	DD	01ba3H
	DD	01905H
	DD	0198eH
	DD	0b88H
	DD	0897H
	DD	020a9H
	DD	05c6H
	DD	01605H
	DD	05d4H
	DD	0172bH
	DD	09b6H
	DD	025b0H
	DD	01562H
	DD	0205eH
	DD	01aa3H
	DD	02132H
	DD	022bcH
	DD	0244aH
	DD	043fH
	DD	0fd7H
	DD	02685H
	DD	01c0H
	DD	02142H
	DD	02322H
	DD	01f81H
	DD	0255eH
	DD	02474H
	DD	05fdH
	DD	0e99H
	DD	0189fH
	DD	025c4H
	DD	01e08H
	DD	0196H
	DD	030dH
	DD	0175dH
	DD	0692H
	DD	023bbH
	DD	017f8H
	DD	02655H
	DD	017f7H
	DD	02172H
	DD	024eeH
	DD	0955H
	DD	0177aH
	DD	0523H
	DD	091bH
	DD	03a4H
	DD	01de7H
	DD	012cfH
	DD	026aaH
	DD	0797H
	DD	01cc9H
	DD	0978H
	DD	01c75H
	DD	0112eH
	DD	08fbH
	DD	010a7H
	DD	01734H
	DD	07dcH
	DD	022caH
	DD	019a3H
	DD	01110H
	DD	011f2H
	DD	0a12H
	DD	0febH
	DD	016f3H
	DD	016f6H
	DD	019dcH
	DD	07c3H
	DD	0d61H
	DD	02654H
	DD	0516H
	DD	01556H
	DD	01cd0H
	DD	0111dH
	DD	06eH
	DD	018f2H
	DD	073cH
	DD	09dbH
	DD	0ef6H
	DD	014a7H
	DD	06d6H
	DD	039bH
	DD	018cdH
	DD	01fa8H
	DD	01162H
	DD	0907H
	DD	01c7bH
	DD	06f8H
	DD	01fa7H
	DD	01749H
	DD	02408H
	DD	024e3H
	DD	0790H
	DD	0dbbH
	DD	064eH
	DD	01e3H
	DD	09efH
	DD	019b6H
	DD	05e9H
	DD	0fdbH
	DD	01db4H
	DD	0198fH
	DD	019c1H
	DD	020f4H
	DD	0173bH
	DD	0854H
	DD	04b2H
	DD	0a8H
	DD	0b4eH
	DD	0df5H
	DD	0125cH
	DD	01a5fH
	DD	0138cH
	DD	0f8dH
	DD	01945H
	DD	02689H
	DD	010eeH
	DD	017e4H
	DD	022d8H
	DD	01189H
	DD	0995H
	DD	013f0H
	DD	02372H
	DD	0489H
	DD	0dbeH
	DD	01ec6H
	DD	03feH
	DD	0221cH
	DD	01bcbH
	DD	0d55H
	DD	0212bH
	DD	0131fH
	DD	03beH
	DD	02183H
	DD	0226aH
	DD	018f4H
	DD	011b6H
	DD	069H
	DD	0ba5H
	DD	0c68H
	DD	011faH
	DD	0100H
	DD	0161eH
	DD	017f9H
	DD	0d6aH
	DD	017a5H
	DD	018aeH
	DD	01d98H
	DD	0187eH
	DD	01dedH
	DD	02aH
	DD	0203cH
	DD	011beH
	DD	010a9H
	DD	0f90H
	DD	0e03H
	DD	013bdH
	DD	014f0H
	DD	0db5H
	DD	025edH
	DD	0ba1H
	DD	0243H
	DD	016eeH
	DD	096H
	DD	095fH
	DD	021abH
	DD	0a25H
	DD	0116aH
	DD	0ebeH
	DD	01ffeH
	DD	0212eH
	DD	01efcH
	DD	082aH
	DD	01540H
	DD	0d15H
	DD	02423H
	DD	067aH
	DD	01a62H
	DD	01a8H
	DD	01fd9H
	DD	021eeH
	DD	016eH
	DD	054aH
	DD	0c0bH
	DD	085fH
	DD	01564H
	DD	02d9H
	DD	0124bH
	DD	063bH
	DD	01361H
	DD	0229aH
	DD	01caeH
	DD	0ebcH
	DD	041eH
	DD	0dcdH
	DD	02407H
	DD	0c39H
	DD	022f0H
	DD	0d7H
	DD	022c0H
	DD	01e47H
	DD	053H
	DD	02319H
	DD	01973H
	DD	04b8H
	DD	0655H
	DD	020cbH
	DD	01f53H
	DD	01c88H
	DD	01096H
	DD	01f16H
	DD	01a42H
	DD	010afH
	DD	01ca5H
	DD	026b0H
	DD	0188fH
	DD	01adcH
	DD	0246eH
	DD	0172H
	DD	0d5bH
	DD	01f7fH
	DD	01d63H
	DD	0f32H
	DD	01d67H
	DD	02040H
	DD	051H
	DD	06a1H
	DD	03e6H
	DD	014e8H
	DD	01e3cH
	DD	0225eH
	DD	02114H
	DD	018adH
	DD	0541H
	DD	01fb4H
	DD	0a9cH
	DD	06faH
	DD	01a02H
	DD	0247H
	DD	0622H
	DD	02442H
	DD	01bb3H
	DD	0c96H
	DD	01338H
	DD	020fcH
	DD	0a13H
	DD	0f77H
	DD	0ab8H
	DD	01aa1H
	DD	0217dH
	DD	027bH
	DD	0279H
	DD	0161cH
	DD	01bd2H
	DD	020fdH
	DD	032cH
	DD	02613H
	DD	0f81H
	DD	02487H
	DD	073H
	DD	02611H
	DD	01723H
	DD	09a3H
	DD	01067H
	DD	01eedH
	DD	014e0H
	DD	055cH
	DD	04f7H
	DD	0b89H
	DD	02024H
	DD	0229H
	DD	01259H
	DD	02262H
	DD	01071H
	DD	0725H
	DD	0d8bH
	DD	02bcH
	DD	0f57H
	DD	0254bH
	DD	09c8H
	DD	0b3dH
	DD	01372H
	DD	0253fH
	DD	0259cH
	DD	0476H
	DD	022d2H
	DD	01047H
	DD	01aa0H
	DD	0ccdH
	DD	01833H
	DD	01c87H
	DD	021dH
	DD	014dbH
	DD	01d13H
	DD	02380H
	DD	015dcH
	DD	0934H
	DD	01190H
	DD	0556H
	DD	0375H
	DD	0834H
	DD	021d0H
	DD	0812H
	DD	0104H
	DD	06f2H
	DD	0dabH
	DD	011adH
	DD	01fdaH
	DD	01021H
	DD	0609H
	DD	02629H
	DD	01a01H
	DD	0a67H
	DD	022a4H
	DD	0d6dH
	DD	015a2H
	DD	0acaH
	DD	0552H
	DD	017a8H
	DD	021edH
	DD	01818H
	DD	01349H
	DD	01909H
	DD	0b61H
	DD	0136dH
	DD	0136eH
	DD	015eeH
	DD	02012H
	DD	0d72H
	DD	0757H
	DD	01f91H
	DD	01fc8H
	DD	01396H
	DD	013a9H
	DD	0adeH
	DD	02620H
	DD	01d2fH
	DD	02432H
	DD	01e8fH
	DD	0151dH
	DD	0cffH
	DD	0134eH
	DD	01064H
	DD	0cc0H
	DD	01e0cH
	DD	023cH
	DD	0decH
	DD	02cbH
	DD	03dbH
	DD	01ee5H
	DD	078bH
	DD	0265aH
	DD	01538H
	DD	01059H
	DD	0c93H
	DD	01670H
	DD	01e4aH
	DD	0b7eH
	DD	07a3H
	DD	0b33H
	DD	05a7H
	DD	08eaH
	DD	0267H
	DD	09e1H
	DD	045cH
	DD	0240bH
	DD	015d7H
	DD	095cH
	DD	0ac7H
	DD	01331H
	DD	01837H
	DD	025b6H
	DD	06b8H
	DD	015c2H
	DD	024bbH
	DD	01e05H
	DD	01444H
	DD	0139bH
	DD	016e2H
	DD	02254H
	DD	01508H
	DD	0136cH
	DD	0228dH
	DD	0173H
	DD	02045H
	DD	0c2eH
	DD	01025H
	DD	0130eH
	DD	015H
	DD	0883H
	DD	077bH
	DD	02235H
	DD	062bH
	DD	0271H
	DD	01f96H
	DD	0996H
	DD	01e97H
	DD	01403H
	DD	01b89H
	DD	022d4H
	DD	0660H
	DD	0222cH
	DD	017dH
	DD	0933H
	DD	0e79H
	DD	01eefH
	DD	02507H
	DD	0194eH
	DD	0cd4H
	DD	013d7H
	DD	0140fH
	DD	015edH
	DD	0229fH
	DD	0119dH
	DD	02547H
	DD	0191H
	DD	01599H
	DD	0721H
	DD	01a94H
	DD	01507H
	DD	0231eH
	DD	07e1H
	DD	025afH
	DD	01068H
	DD	0b73H
	DD	02202H
	DD	0141H
	DD	01ed5H
	DD	0ff0H
	DD	01b6cH
	DD	0103dH
	DD	0699H
	DD	0131aH
	DD	0860H
	DD	0250H
	DD	0cb4H
	DD	01360H
	DD	02704H
	DD	022c7H
	DD	05deH
	DD	012c4H
	DD	0e45H
	DD	0ad7H
	DD	0224dH
	DD	0484H
	DD	09caH
	DD	0ee2H
	DD	0926H
	DD	01af6H
	DD	01c93H
	DD	02633H
	DD	0598H
	DD	05b2H
	DD	01a78H
	DD	02536H
	DD	0134aH
	DD	01a14H
	DD	0c46H
	DD	01553H
	DD	01242H
	DD	01955H
	DD	07dH
	DD	026e3H
	DD	098bH
	DD	024a2H
	DD	01f1aH
	DD	0e80H
	DD	02449H
	DD	02610H
	DD	0aa6H
	DD	024bdH
	DD	0e59H
	DD	052fH
	DD	0ed4H
	DD	0d03H
	DD	0be8H
	DD	0aaH
	DD	09f3H
	DD	01337H
	DD	016edH
	DD	01ce4H
	DD	0dc0H
	DD	0253H
	DD	01e09H
	DD	012c3H
	DD	02392H
	DD	02030H
	DD	0d1aH
	DD	015ccH
	DD	0243dH
	DD	090fH
	DD	020ccH
	DD	026feH
	DD	01698H
	DD	064bH
	DD	026b1H
	DD	01077H
	DD	04a5H
	DD	02552H
	DD	0fdcH
	DD	02566H
	DD	019b0H
	DD	01975H
	DD	085cH
	DD	0a0dH
	DD	01935H
	DD	02150H
	DD	02458H
	DD	01f73H
	DD	024b6H
	DD	024aaH
	DD	01348H
	DD	025eeH
	DD	02560H
	DD	0179fH
	DD	077cH
	DD	01e16H
	DD	01aaH
	DD	01d41H
	DD	01648H
	DD	05faH
	DD	0e43H
	DD	0a3dH
	DD	02638H
	DD	08c7H
	DD	012b4H
	DD	0262eH
	DD	010b0H
	DD	0766H
	DD	031fH
	DD	0caaH
	DD	01411H
	DD	023b5H
	DD	018b6H
	DD	01f69H
	DD	015bbH
	DD	0cfbH
	DD	021aaH
	DD	01acdH
	DD	0267aH
	DD	0213eH
	DD	02628H
	DD	02084H
	DD	02448H
	DD	01b7fH
	DD	02041H
	DD	0879H
	DD	0534H
	DD	01072H
	DD	0ef1H
	DD	08e8H
	DD	01f7bH
	DD	0bb2H
	DD	07a7H
	DD	08dfH
	DD	02518H
	DD	0248eH
	DD	0246fH
	DD	0244dH
	DD	01d64H
	DD	02d2H
	DD	01f52H
	DD	079eH
	DD	0a7cH
	DD	01df3H
	DD	01bc0H
	DD	0d12H
	DD	02502H
	DD	01cb8H
	DD	02271H
	DD	01b99H
	DD	01dd4H
	DD	01a13H
	DD	022aaH
	DD	0a98H
	DD	04f9H
	DD	010acH
	DD	01b0fH
	DD	024d6H
	DD	019b8H
	DD	02160H
	DD	0859H
	DD	0167eH
	DD	01a2cH
	DD	090eH
	DD	032aH
	DD	02088H
	DD	0dffH
	DD	0132eH
	DD	01982H
	DD	0171cH
	DD	01467H
	DD	02578H
	DD	0b66H
	DD	0df3H
	DD	07eH
	DD	0b38H
	DD	012ceH
	DD	01b9aH
	DD	0236fH
	DD	0c5aH
	DD	0b0eH
	DD	0217fH
	DD	0109aH
	DD	0944H
	DD	04eeH
	DD	02135H
	DD	01b58H
	DD	013c9H
	DD	01358H
	DD	0ae3H
	DD	0968H
	DD	0ccfH
	DD	01d75H
	DD	0146H
	DD	0cb8H
	DD	01876H
	DD	024a9H
	DD	0513H
	DD	03c2H
	DD	01e7aH
	DD	010a5H
	DD	0d1eH
	DD	092bH
	DD	01961H
	DD	01d02H
	DD	014dH
	DD	018bcH
	DD	019a0H
	DD	0243bH
	DD	05d2H
	DD	01353H
	DD	0f7cH
	DD	063cH
	DD	01e6dH
	DD	02039H
	DD	01c52H
	DD	0115fH
	DD	0c3aH
	DD	01c30H
	DD	01163H
	DD	01236H
	DD	015aaH
	DD	08aH
	DD	01accH
	DD	0212dH
	DD	01d33H
	DD	0213cH
	DD	073fH
	DD	01d86H
	DD	0823H
	DD	019e8H
	DD	01d0dH
	DD	0180dH
	DD	024b4H
	DD	0206H
	DD	0c97H
	DD	01f51H
	DD	07c9H
	DD	0ee9H
	DD	0202cH
	DD	01b2fH
	DD	0f4bH
	DD	01e30H
	DD	02411H
	DD	049fH
	DD	01b54H
	DD	011a6H
	DD	01593H
	DD	02363H
	DD	0136bH
	DD	0d1cH
	DD	01bd5H
	DD	0ba8H
	DD	01657H
	DD	0b08H
	DD	01d9aH
	DD	06d7H
	DD	026eH
	DD	061dH
	DD	013fH
	DD	01ebbH
	DD	016b6H
	DD	038dH
	DD	01f00H
	DD	0b94H
	DD	01d11H
	DD	06f1H
	DD	0467H
	DD	014b1H
	DD	016a9H
	DD	0eecH
	DD	01ba7H
	DD	0255fH
	DD	0388H
	DD	019eeH
	DD	02688H
	DD	010aeH
	DD	0286H
	DD	01ed7H
	DD	073aH
	DD	013b5H
	DD	0188cH
	DD	037cH
	DD	016e8H
	DD	01bb5H
	DD	07f4H
	DD	0257aH
	DD	029H
	DD	010cbH
	DD	06e7H
	DD	0eb0H
	DD	020feH
	DD	01039H
	DD	01514H
	DD	0108dH
	DD	010fcH
	DD	02338H
	DD	0f06H
	DD	01023H
	DD	0275H
	DD	034aH
	DD	016H
	DD	01b40H
	DD	0de6H
	DD	01e55H
	DD	01178H
	DD	0809H
	DD	07acH
	DD	01c14H
	DD	01558H
	DD	0a6aH
	DD	084aH
	DD	0231aH
	DD	01bafH
	DD	01db9H
	DD	06c8H
	DD	01987H
	DD	01cc5H
	DD	0cccH
	DD	01771H
	DD	023f8H
	DD	01598H
	DD	01489H
	DD	01231H
	DD	01a90H
	DD	09fcH
	DD	011acH
	DD	01001H
	DD	0436H
	DD	026a0H
	DD	0191cH
	DD	01ee4H
	DD	020b4H
	DD	0fa8H
	DD	0b14H
	DD	02331H
	DD	0663H
	DD	010e9H
	DD	025a0H
	DD	0e8eH
	DD	0233cH
	DD	01e2dH
	DD	01c59H
	DD	066bH
	DD	016dcH
	DD	02293H
	DD	0185cH
	DD	0e75H
	DD	01000H
	DD	015b4H
	DD	02665H
	DD	0f7aH
	DD	01df2H
	DD	0e37H
	DD	011a1H
	DD	012a7H
	DD	0268cH
	DD	012f8H
	DD	01cbcH
	DD	016f0H
	DD	02666H
	DD	0f10H
	DD	034fH
	DD	0681H
	DD	0e2fH
	DD	0223cH
	DD	0103H
	DD	01a83H
	DD	0105fH
	DD	0496H
	DD	0c58H
	DD	02a2H
	DD	024f5H
	DD	0176bH
	DD	0f03H
	DD	0894H
	DD	05bfH
	DD	02676H
	DD	014d0H
	DD	02450H
	DD	01828H
	DD	077H
	DD	01319H
	DD	05a1H
	DD	015f3H
	DD	0547H
	DD	022abH
	DD	0165dH
	DD	02287H
	DD	0dfdH
	DD	01e7dH
	DD	02237H
	DD	0181dH
	DD	0335H
	DD	02236H
	DD	0210eH
	DD	0e6dH
	DD	064H
	DD	0342H
	DD	0f7fH
	DD	0862H
	DD	0104dH
	DD	02208H
	DD	01debH
	DD	01770H
	DD	01a11H
	DD	01ca1H
	DD	01a7eH
	DD	0109H
	DD	0572H
	DD	0168fH
	DD	0d96H
	DD	01a7aH
	DD	0a43H
	DD	022c8H
	DD	0394H
	DD	02617H
	DD	01a21H
	DD	011a8H
	DD	01117H
	DD	01685H
	DD	0c12H
	DD	022a2H
	DD	01d1dH
	DD	01c22H
	DD	01621H
	DD	01ff8H
	DD	0457H
	DD	09f9H
	DD	0264dH
	DD	05f3H
	DD	0139cH
	DD	021a4H
	DD	0174bH
	DD	01ccbH
	DD	0266bH
	DD	0d9H
	DD	084H
	DD	025acH
	DD	013e1H
	DD	094dH
	DD	025b2H
	DD	0270H
	DD	01a98H
	DD	02626H
	DD	0c6H
	DD	0cfH
	DD	01b2eH
	DD	0a50H
	DD	0142H
	DD	0138H
	DD	081dH
	DD	0168cH
	DD	01547H
	DD	0119eH
	DD	01fdcH
	DD	0ca7H
	DD	02226H
	DD	04f4H
	DD	0fe1H
	DD	01dc7H
	DD	01af7H
	DD	01284H
	DD	02354H
	DD	023d5H
	DD	0ef8H
	DD	018fH
	DD	02018H
	DD	0ec5H
	DD	0e58H
	DD	0c81H
	DD	0186dH
	DD	08cfH
	DD	0ab9H
	DD	02680H
	DD	09f6H
	DD	01702H
	DD	0130cH
	DD	0ff4H
	DD	01241H
	DD	017c2H
	DD	01042H
	DD	0eb2H
	DD	024afH
	DD	025daH
	DD	0d37H
	DD	04b9H
	DD	0175fH
	DD	059dH
	DD	01678H
	DD	0154H
	DD	0efbH
	DD	0156cH
	DD	0256dH
	DD	025cfH
	DD	0f46H
	DD	0270aH
	DD	02231H
	DD	0c8eH
	DD	0128cH
	DD	0963H
	DD	01e8cH
	DD	0188bH
	DD	09cH
	DD	01fe7H
	DD	0fc6H
	DD	0f5aH
	DD	0ecfH
	DD	022bdH
	DD	022c3H
	DD	021aeH
	DD	02111H
	DD	01bb2H
	DD	017d1H
	DD	0176aH
	DD	02538H
	DD	05d5H
	DD	0269cH
	DD	01839H
	DD	0d06H
	DD	0487H
	DD	0198bH
	DD	052bH
	DD	011a2H
	DD	0dd8H
	DD	0182bH
	DD	04f3H
	DD	0ad5H
	DD	02c9H
	DD	01b7H
	DD	011cdH
	DD	065eH
	DD	0246dH
	DD	09c1H
	DD	01953H
	DD	026adH
	DD	0eb3H
	DD	0e6H
	DD	0194bH
	DD	023abH
	DD	0d44H
	DD	0cdeH
	DD	04dbH
	DD	0b6aH
	DD	01f0eH
	DD	01f19H
	DD	0397H
	DD	011eaH
	DD	0210bH
	DD	01cdfH
	DD	09b1H
	DD	09a8H
	DD	01dabH
	DD	049cH
	DD	0b18H
	DD	0cafH
	DD	025d5H
	DD	02311H
	DD	0111H
	DD	0124aH
	DD	0b72H
	DD	02364H
	DD	01b90H
	DD	066cH
	DD	01356H
	DD	0947H
	DD	0154cH
	DD	0d74H
	DD	0519H
	DD	01f05H
	DD	01efeH
	DD	0d98H
	DD	0c09H
	DD	0235fH
	DD	0a0aH
	DD	023e9H
	DD	0d05H
	DD	0262dH
	DD	01850H
	DD	01dcbH
	DD	01607H
	DD	01ce2H
	DD	01745H
	DD	04fbH
	DD	0265eH
	DD	08c8H
	DD	01b5dH
	DD	01ef0H
	DD	02418H
	DD	0100aH
	DD	0292H
	DD	02499H
	DD	01569H
	DD	01783H
	DD	0e0bH
	DD	0847H
	DD	010d0H
	DD	01779H
	DD	017efH
	DD	0f21H
	DD	0206aH
	DD	0a10H
	DD	02047H
	DD	0a42H
	DD	01ea3H
	DD	05e4H
	DD	05b3H
	DD	0591H
	DD	01a29H
	DD	09f4H
	DD	01a4eH
	DD	025ebH
	DD	02cH
	DD	09b2H
	DD	0144dH
	DD	0214eH
	DD	0c4bH
	DD	01b9H
	DD	058dH
	DD	0d0H
	DD	0f0dH
	DD	0896H
	DD	022b0H
	DD	017f0H
	DD	01996H
	DD	02258H
	DD	01710H
	DD	0258fH
	DD	030H
	DD	082bH
	DD	0166H
	DD	01e53H
	DD	02320H
	DD	0640H
	DD	01b94H
	DD	0387H
	DD	0178aH
	DD	050H
	DD	0244bH
	DD	016a8H
	DD	0969H
	DD	024dH
	DD	0694H
	DD	0247fH
	DD	0134dH
	DD	0264eH
	DD	026d6H
	DD	0c35H
	DD	01c65H
	DD	021c5H
	DD	03bdH
	DD	024cfH
	DD	01ba0H
	DD	01969H
	DD	01451H
	DD	01ecaH
	DD	017cH
	DD	02525H
	DD	07c7H
	DD	02574H
	DD	01aa7H
	DD	0a58H
	DD	0b96H
	DD	014f7H
	DD	01fecH
	DD	01ca6H
	DD	0177fH
	DD	0158eH
	DD	025f5H
	DD	013fcH
	DD	02591H
	DD	0f9cH
	DD	0225fH
	DD	025cH
	DD	01305H
	DD	013a8H
	DD	02065H
	DD	01e00H
	DD	0461H
	DD	02606H
	DD	079bH
	DD	0502H
	DD	0a8dH
	DD	02571H
	DD	01d52H
	DD	0204H
	DD	020b8H
	DD	0f07H
	DD	091aH
	DD	0c7cH
	DD	0606H
	DD	01aa6H
	DD	01205H
	DD	016bH
	DD	059H
	DD	01e0bH
	DD	05efH
	DD	0103bH
	DD	01c2fH
	DD	0bddH
	DD	021cfH
	DD	01150H
	DD	0d10H
	DD	014c6H
	DD	047eH
	DD	0445H
	DD	0548H
	DD	010e1H
	DD	0c77H
	DD	0298H
	DD	01874H
	DD	054bH
	DD	0e91H
	DD	0c69H
	DD	0187dH
	DD	01bc1H
	DD	0b31H
	DD	019d0H
	DD	01440H
	DD	09bcH
	DD	01c2eH
	DD	022cdH
	DD	01649H
	DD	01278H
	DD	04e9H
	DD	01bf8H
	DD	0becH
	DD	01e9cH
	DD	0683H
	DD	0e98H
	DD	01f62H
	DD	01707H
	DD	058aH
	DD	07faH
	DD	011deH
	DD	01686H
	DD	0a90H
	DD	023c3H
	DD	01de3H
	DD	0710H
	DD	01666H
	DD	012faH
	DD	06b6H
	DD	022e4H
	DD	0dd9H
	DD	01543H
	DD	024f8H
	DD	01bH
	DD	020f7H
	DD	0dbdH
	DD	0f9aH
	DD	042aH
	DD	05dH
	DD	01763H
	DD	02674H
	DD	0207aH
	DD	012e0H
	DD	0190aH
	DD	060eH
	DD	07adH
	DD	0155dH
	DD	01118H
	DD	02343H
	DD	01168H
	DD	0ddeH
	DD	04bbH
	DD	0c19H
	DD	013e6H
	DD	0ff3H
	DD	0e7cH
	DD	018dbH
	DD	0144aH
	DD	0a11H
	DD	0202H
	DD	0c24H
	DD	02247H
	DD	01ddH
	DD	022bfH
	DD	0189dH
	DD	0196bH
	DD	0110H
	DD	012d6H
	DD	012d8H
	DD	02651H
	DD	0220bH
	DD	0c0H
	DD	0359H
	DD	06cfH
	DD	0153eH
	DD	026b7H
	DD	0105eH
	DD	0102aH
	DD	01a5cH
	DD	024c4H
	DD	01829H
	DD	090cH
	DD	01a89H
	DD	0b16H
	DD	0116cH
	DD	01d08H
	DD	021feH
	DD	01a1dH
	DD	04c4H
	DD	019f6H
	DD	010dH
	DD	01040H
	DD	0dccH
	DD	01fe0H
	DD	0147bH
	DD	01265H
	DD	020b9H
	DD	01cc1H
	DD	01c6fH
	DD	02546H
	DD	0ab2H
	DD	02a3H
	DD	0481H
	DD	01471H
	DD	090dH
	DD	02130H
	DD	01a1H
	DD	01c4H
	DD	0493H
	DD	0a75H
	DD	0970H
	DD	01e4fH
	DD	01b7cH
	DD	05c4H
	DD	0f52H
	DD	0127eH
	DD	0199eH
	DD	019f8H
	DD	08d2H
	DD	0fd3H
	DD	02222H
	DD	0c7fH
	DD	0ae4H
	DD	0959H
	DD	066aH
	DD	02505H
	DD	0746H
	DD	012bdH
	DD	0c5fH
	DD	02435H
	DD	03edH
	DD	01570H
	DD	01094H
	DD	016b0H
	DD	0a5cH
	DD	0d6cH
	DD	01992H
	DD	0f8H
	DD	0207H
	DD	023e5H
	DD	011a4H
	DD	0d97H
	DD	01a2H
	DD	01b26H
	DD	07c4H
	DD	022bbH
	DD	01055H
	DD	02042H
	DD	0f71H
	DD	03a7H
	DD	0d3bH
	DD	01dccH
	DD	01cbaH
	DD	021f1H
	DD	01d8cH
	DD	0a08H
	DD	0244cH
	DD	01d71H
	DD	010eH
	DD	01296H
	DD	01261H
	DD	0eb8H
	DD	0100fH
	DD	02e9H
	DD	01fc1H
	DD	0c5H
	DD	0beeH
	DD	01936H
	DD	0d42H
	DD	019d9H
	DD	013adH
	DD	0a1aH
	DD	01767H
	DD	06e8H
	DD	0119aH
	DD	01da5H
	DD	02241H
	DD	018e5H
	DD	08ecH
	DD	0f7bH
	DD	02050H
	DD	0393H
	DD	025eH
	DD	01ab8H
	DD	01da1H
	DD	0295H
	DD	0163H
	DD	01637H
	DD	02521H
	DD	01612H
	DD	0429H
	DD	04d4H
	DD	0242aH
	DD	070eH
	DD	010fH
	DD	014eaH
	DD	01898H
	DD	01cbH
	DD	0fdH
	DD	07b5H
	DD	0867H
	DD	0c5cH
	DD	0baH
	DD	026d8H
	DD	01fdeH
	DD	081cH
	DD	0651H
	DD	01687H
	DD	01248H
	DD	020a4H
	DD	064dH
	DD	0102bH
	DD	02297H
	DD	086H
	DD	012aaH
	DD	0104cH
	DD	083cH
	DD	0277H
	DD	016caH
	DD	0aacH
	DD	0b3aH
	DD	0e41H
	DD	0430H
	DD	023f5H
	DD	0a30H
	DD	01b84H
	DD	0cbcH
	DD	0118cH
	DD	0e69H
	DD	0473H
	DD	01a6cH
	DD	023a6H
	DD	02259H
	DD	01256H
	DD	01542H
	DD	01814H
	DD	0da3H
	DD	07a6H
	DD	01d53H
	DD	01978H
	DD	01ff6H
	DD	0242fH
	DD	0159cH
	DD	0cb7H
	DD	0117bH
	DD	02390H
	DD	018c4H
	DD	06eeH
	DD	0a2eH
	DD	017adH
	DD	01db3H
	DD	0cc5H
	DD	01196H
	DD	0c49H
	DD	01b56H
	DD	0715H
	DD	08caH
	DD	033cH
	DD	0fedH
	DD	02359H
	DD	0a27H
	DD	026aeH
	DD	01c66H
	DD	01b5H
	DD	01f65H
	DD	014bcH
	DD	01ab3H
	DD	022c4H
	DD	0554H
	DD	01461H
	DD	02512H
	DD	04c7H
	DD	02466H
	DD	018bH
	DD	012bbH
	DD	01b13H
	DD	016cfH
	DD	0353H
	DD	018eH
	DD	0bc3H
	DD	01f14H
	DD	02353H
	DD	02519H
	DD	0eadH
	DD	022cH
	DD	0939H
	DD	011aH
	DD	01aeeH
	DD	06bfH
	DD	01198H
	DD	0b85H
	DD	058cH
	DD	0dbfH
	DD	03e3H
	DD	021a7H
	DD	01e1cH
	DD	0219aH
	DD	0c87H
	DD	020a1H
	DD	018f8H
	DD	01c12H
	DD	01c1H
	DD	0213H
	DD	026a8H
	DD	016c9H
	DD	016b1H
	DD	0ea7H
	DD	09a9H
	DD	0573H
	DD	01254H
	DD	0cb1H
	DD	0633H
	DD	012b8H
	DD	07d7H
	DD	0ad8H
	DD	01e8H
	DD	0adcH
	DD	02f6H
	DD	0d1H
	DD	01df9H
	DD	01035H
	DD	0211eH
	DD	061aH
	DD	02670H
	DD	01a2eH
	DD	0191fH
	DD	011eeH
	DD	01392H
	DD	05cH
	DD	01b1eH
	DD	0fbH
	DD	0990H
	DD	010a3H
	DD	01ab0H
	DD	0deaH
	DD	02deH
	DD	01b15H
	DD	0db2H
	DD	012c0H
	DD	018b0H
	DD	0c6fH
	DD	072fH
	DD	02268H
	DD	086dH
	DD	083H
	DD	01baaH
	DD	02553H
	DD	071eH
	DD	045fH
	DD	01dd1H
	DD	019efH
	DD	024c7H
	DD	0e2dH
	DD	01c49H
	DD	011e3H
	DD	021efH
	DD	01d6dH
	DD	087dH
	DD	01baH
	DD	017b8H
	DD	0db3H
	DD	022eH
	DD	042cH
	DD	01d69H
	DD	0199H
	DD	0d0cH
	DD	03ecH
	DD	016b5H
	DD	0caH
	DD	025H
	DD	01509H
	DD	011d7H
	DD	09ceH
	DD	0282H
	DD	017a0H
	DD	0ca4H
	DD	0187fH
	DD	07ffH
	DD	0623H
	DD	0d9bH
	DD	02217H
	DD	0af5H
	DD	07c1H
	DD	01511H
	DD	0a4bH
	DD	013b7H
	DD	01a43H
	DD	0139fH
	DD	029aH
	DD	022d3H
	DD	02eH
	DD	08eeH
	DD	01638H
	DD	01a85H
	DD	02358H
	DD	02173H
	DD	01f0cH
	DD	0ec0H
	DD	026f5H
	DD	0167bH
	DD	01b37H
	DD	08feH
	DD	01f44H
	DD	01125H
	DD	0398H
	DD	0b90H
	DD	011afH
	DD	0d7eH
	DD	01768H
	DD	0225dH
	DD	022edH
	DD	0af6H
	DD	08b5H
	DD	019daH
	DD	017fbH
	DD	01f56H
	DD	02643H
	DD	0cdbH
	DD	06c1H
	DD	04a4H
	DD	0eb4H
	DD	0b2H
	DD	0a74H
	DD	0356H
	DD	0323H
	DD	01cf1H
	DD	0109dH
	DD	0aeaH
	DD	09adH
	DD	01f31H
	DD	01e46H
	DD	0d48H
	DD	0133H
	DD	024bcH
	DD	015ebH
	DD	01c72H
	DD	07a5H
	DD	014e7H
	DD	05ceH
	DD	01136H
	DD	01f74H
	DD	08e2H
	DD	02561H
	DD	0827H
	DD	020eH
	DD	01766H
	DD	01938H
	DD	018ffH
	DD	01c10H
	DD	0782H
	DD	02386H
	DD	012b6H
	DD	0f5cH
	DD	01964H
	DD	0203H
	DD	024e9H
	DD	01559H
	DD	0fa3H
	DD	07c8H
	DD	01dbeH
	DD	01e27H
	DD	0a51H
	DD	07deH
	DD	03ebH
	DD	01c5eH
	DD	02485H
	DD	01895H
	DD	01802H
	DD	01afaH
	DD	0256eH
	DD	0200eH
	DD	04a0H
	DD	0108eH
	DD	018e2H
	DD	01f7eH
	DD	0b36H
	DD	090aH
	DD	0833H
	DD	0991H
	DD	0256cH
	DD	0e6bH
	DD	025c7H
	DD	01dfdH
	DD	088aH
	DD	010f4H
	DD	01a58H
	DD	01f7aH
	DD	01de1H
	DD	026d2H
	DD	02306H
	DD	06f9H
	DD	01df1H
	DD	01a5bH
	DD	03b9H
	DD	05acH
	DD	021c4H
	DD	0a00H
	DD	01791H
	DD	024b3H
	DD	02590H
	DD	01860H
	DD	01fafH
	DD	0afeH
	DD	01d5aH
	DD	0c55H
	DD	01c76H
	DD	01c61H
	DD	05c3H
	DD	01cfH
	DD	02490H
	DD	02383H
	DD	01132H
	DD	0439H
	DD	011d0H
	DD	020bbH
	DD	048dH
	DD	014e3H
	DD	01447H
	DD	0458H
	DD	020adH
	DD	02049H
	DD	0b00H
	DD	0ae9H
	DD	011b0H
	DD	069dH
	DD	0237fH
	DD	02534H
	DD	02301H
	DD	022cfH
	DD	016c0H
	DD	02210H
	DD	01bc9H
	DD	0b87H
	DD	0bf6H
	DD	0443H
	DD	043eH
	DD	0e16H
	DD	0149bH
	DD	0772H
	DD	063eH
	DD	0451H
	DD	0c79H
	DD	0d40H
	DD	0c57H
	DD	016a4H
	DD	08e6H
	DD	01180H
	DD	02f7H
	DD	0244H
	DD	02a1H
	DD	01611H
	DD	023c4H
	DD	0853H
	DD	0ef4H
	DD	01015H
	DD	012a9H
	DD	0784H
	DD	0d11H
	DD	0235bH
	DD	013b0H
	DD	03f6H
	DD	01a75H
	DD	02079H
	DD	0a31H
	DD	087bH
	DD	02429H
	DD	0563H
	DD	01922H
	DD	01604H
	DD	01bffH
	DD	01fa1H
	DD	0a99H
	DD	0fbeH
	DD	0cb0H
	DD	016fbH
	DD	02709H
	DD	0518H
	DD	0981H
	DD	0522H
	DD	052eH
	DD	02391H
	DD	09eeH
	DD	01082H
	DD	022adH
	DD	025bH
	DD	02683H
	DD	018a7H
	DD	01918H
	DD	017e5H
	DD	0e29H
	DD	0160fH
	DD	0307H
	DD	0b6fH
	DD	01078H
	DD	016bbH
	DD	0121aH
	DD	020e0H
	DD	01005H
	DD	01fc3H
	DD	017fcH
	DD	0348H
	DD	0a57H
	DD	032bH
	DD	0582H
	DD	015c1H
	DD	070H
	DD	02feH
	DD	0a46H
	DD	01ed1H
	DD	02457H
	DD	01894H
	DD	0e87H
	DD	01e7eH
	DD	08efH
	DD	01daeH
	DD	010a1H
	DD	01866H
	DD	01747H
	DD	011bcH
	DD	02003H
	DD	017dbH
	DD	09f0H
	DD	01151H
	DD	0da6H
	DD	019cH
	DD	01853H
	DD	01f92H
	DD	08afH
	DD	0f94H
	DD	0f53H
	DD	01f2dH
	DD	074H
	DD	01195H
	DD	02261H
	DD	01131H
	DD	0cd7H
	DD	01793H
	DD	01bc8H
	DD	01bd3H
	DD	021a0H
	DD	01b74H
	DD	0141cH
	DD	01344H
	DD	01706H
	DD	0a8bH
	DD	07e5H
	DD	0269H
	DD	01fc0H
	DD	02dcH
	DD	02197H
	DD	0ed0H
	DD	021f0H
	DD	01cfeH
	DD	0159fH
	DD	0111eH
	DD	0db1H
	DD	0221dH
	DD	01bcdH
	DD	0555H
	DD	0f5bH
	DD	01dbfH
	DD	023c6H
	DD	02280H
	DD	015c8H
	DD	01c39H
	DD	02e4H
	DD	024d4H
	DD	0102fH
	DD	026cfH
	DD	032H
	DD	016dH
	DD	0a17H
	DD	01b8aH
	DD	0910H
	DD	02213H
	DD	04f6H
	DD	03f5H
	DD	01f47H
	DD	01b8dH
	DD	023d4H
	DD	0f79H
	DD	02697H
	DD	062dH
	DD	014aaH
	DD	0154dH
	DD	0673H
	DD	02314H
	DD	01a38H
	DD	01774H
	DD	01382H
	DD	0e60H
	DD	0a5eH
	DD	0fbfH
	DD	011f0H
	DD	0816H
	DD	01003H
	DD	017daH
	DD	0adH
	DD	01700H
	DD	011fdH
	DD	09cfH
	DD	02164H
	DD	0138bH
	DD	01554H
	DD	044H
	DD	01f95H
	DD	018c9H
	DD	0ce5H
	DD	011b8H
	DD	0cd3H
	DD	04f1H
	DD	01ba9H
	DD	01c38H
	DD	01f86H
	DD	0164eH
	DD	011b5H
	DD	0619H
	DD	0f0bH
	DD	01503H
	DD	0b35H
	DD	0137cH
	DD	01e73H
	DD	050aH
	DD	0cd0H
	DD	0259eH
	DD	024b8H
	DD	01d7bH
	DD	010a4H
	DD	044cH
	DD	01ccfH
	DD	011e5H
	DD	0fcaH
	DD	078cH
	DD	01f0H
	DD	01f61H
	DD	022deH
	DD	01e9bH
	DD	0741H
	DD	0e96H
	DD	0151aH
	DD	0195eH
	DD	0bf5H
	DD	052H
	DD	0125H
	DD	014f4H
	DD	0a56H
	DD	025d1H
	DD	0214H
	DD	0156bH
	DD	01d1eH
	DD	014e5H
	DD	0191eH
	DD	015bH
	DD	0464H
	DD	0ba3H
	DD	05c5H
	DD	018e7H
	DD	0771H
	DD	01ae6H
	DD	01a08H
	DD	0f37H
	DD	010e7H
	DD	0ee7H
	DD	066dH
	DD	0f15H
	DD	023dbH
	DD	02283H
	DD	01717H
	DD	017eH
	DD	02eeH
	DD	014d3H
	DD	0149eH
	DD	015baH
	DD	02632H
	DD	0a81H
	DD	01917H
	DD	08f1H
	DD	0241aH
	DD	01389H
	DD	02c0H
	DD	026c4H
	DD	01dc0H
	DD	024abH
	DD	025d0H
	DD	0ffbH
	DD	024d0H
	DD	0248dH
	DD	02122H
	DD	01f8aH
	DD	01a9eH
	DD	011f7H
	DD	0676H
	DD	06e2H
	DD	014b2H
	DD	01650H
	DD	0f8bH
	DD	01a26H
	DD	09aeH
	DD	0bf3H
	DD	0156fH
	DD	01983H
	DD	020deH
	DD	0179eH
	DD	0168aH
	DD	0dadH
	DD	0119cH
	DD	027dH
	DD	0c33H
	DD	0c9cH
	DD	05b0H
	DD	01bfbH
	DD	0b5H
	DD	09b7H
	DD	02427H
	DD	022b9H
	DD	0121cH
	DD	01b34H
	DD	0584H
	DD	01552H
	DD	0ca5H
	DD	0e57H
	DD	02394H
	DD	02282H
	DD	018a3H
	DD	011bbH
	DD	0152aH
	DD	01cb4H
	DD	01c03H
	DD	0fd2H
	DD	019a7H
	DD	0540H
	DD	0459H
	DD	0730H
	DD	0214bH
	DD	0be1H
	DD	01e83H
	DD	012b7H
	DD	0a47H
	DD	0197bH
	DD	0cc6H
	DD	057eH
	DD	027cH
	DD	0e8fH
	DD	0dc5H
	DD	020e9H
	DD	0b7cH
	DD	0f4H
	DD	016a1H
	DD	021f2H
	DD	0a0eH
	DD	0b40H
	DD	01325H
	DD	076bH
	DD	01c8cH
	DD	019d4H
	DD	084fH
	DD	090bH
	DD	01379H
	DD	0f9H
	DD	014ddH
	DD	01693H
	DD	021ffH
	DD	02438H
	DD	0226bH
	DD	02bbH
	DD	0b45H
	DD	0143fH
	DD	01336H
	DD	0126dH
	DD	0ea3H
	DD	023f2H
	DD	02093H
	DD	0127H
	DD	022a0H
	DD	024a0H
	DD	0accH
	DD	046dH
	DD	012dfH
	DD	0c7H
	DD	01e5dH
	DD	01cfdH
	DD	0eedH
	DD	068fH
	DD	0188aH
	DD	0bebH
	DD	01645H
	DD	024bH
	DD	02011H
	DD	01f1cH
	DD	01640H
	DD	010bcH
	DD	0215bH
	DD	0d2cH
	DD	01db7H
	DD	01a51H
	DD	01188H
	DD	0b9H
	DD	0f24H
	DD	09c5H
	DD	012a8H
	DD	0101cH
	DD	0300H
	DD	0551H
	DD	0750H
	DD	01ae7H
	DD	01689H
	DD	0466H
	DD	025ceH
	DD	023fbH
	DD	04d9H
	DD	0263cH
	DD	0ee3H
	DD	018caH
	DD	02599H
	DD	0871H
	DD	0eeH
	DD	0ca0H
	DD	01073H
	DD	0153aH
	DD	025bdH
	DD	01b7bH
	DD	02308H
	DD	019H
	DD	010f1H
	DD	0c4cH
	DD	086bH
	DD	01c3aH
	DD	01fefH
	DD	0780H
	DD	019e0H
	DD	01ba1H
	DD	0254dH
	DD	0237dH
	DD	01deH
	DD	0200fH
	DD	021a8H
	DD	01de0H
	DD	022f1H
	DD	0b64H
	DD	0ea1H
	DD	0a26H
	DD	01d93H
	DD	077dH
	DD	023cbH
	DD	032fH
	DD	01d7dH
	DD	0b24H
	DD	0c56H
	DD	01c4eH
	DD	0d23H
	DD	0c5eH
	DD	01abaH
	DD	023a1H
	DD	037dH
	DD	028eH
	DD	0b10H
	DD	09b4H
	DD	0af3H
	DD	04f5H
	DD	01eH
	DD	016c8H
	DD	020bcH
	DD	01a18H
	DD	046H
	DD	02645H
	DD	0456H
	DD	0268fH
	DD	02052H
	DD	01352H
	DD	01ea9H
	DD	0eacH
	DD	01f8cH
	DD	0f3H
	DD	0b30H
	DD	018e4H
	DD	01fbbH
	DD	0b1H
	DD	01740H
	DD	015dbH
	DD	023c1H
	DD	014eH
	DD	0dafH
	DD	014b7H
	DD	0199cH
	DD	0c3eH
	DD	025c8H
	DD	015c5H
	DD	01730H
	DD	094aH
	DD	0a01H
	DD	01fe9H
	DD	0269dH
	DD	021e3H
	DD	014dfH
	DD	0668H
	DD	0202dH
	DD	02570H
	DD	01869H
	DD	01d48H
	DD	0a52H
	DD	015b3H
	DD	0336H
	DD	052cH
	DD	0884H
	DD	01a72H
	DD	01606H
	DD	014adH
	DD	01758H
	DD	022e7H
	DD	014a8H
	DD	0b8fH
	DD	0a85H
	DD	01334H
	DD	020a2H
	DD	0a3aH
	DD	01b2aH
	DD	07a2H
	DD	0a4dH
	DD	026cH
	DD	01d4eH
	DD	0b99H
	DD	0e8cH
	DD	01232H
	DD	0d2aH
	DD	0565H
	DD	0f54H
	DD	0245aH
	DD	013efH
	DD	0994H
	DD	023ffH
	DD	017cbH
	DD	0effH
	DD	0953H
	DD	04beH
	DD	01057H
	DD	022b1H
	DD	0e0cH
	DD	02602H
	DD	05a5H
	DD	024e4H
	DD	01b14H
	DD	023f4H
	DD	02f4H
	DD	091H
	DD	0dcaH
	DD	01049H
	DD	0dd0H
	DD	0931H
	DD	0453H
	DD	02375H
	DD	02195H
	DD	016f9H
	DD	0993H
	DD	01950H
	DD	0181bH
	DD	06dcH
	DD	020dfH
	DD	023d8H
	DD	013eeH
	DD	0e7H
	DD	01381H
	DD	0463H
	DD	01187H
	DD	02318H
	DD	01f5fH
	DD	01815H
	DD	0ab3H
	DD	0266aH
	DD	017c8H
	DD	09bfH
	DD	015e2H
	DD	0391H
	DD	0126aH
	DD	0882H
	DD	01b6dH
	DD	0d81H
	DD	0501H
	DD	0d66H
	DD	014aH
	DD	01e65H
	DD	099H
	DD	01f8eH
	DD	01435H
	DD	02209H
	DD	01e0fH
	DD	013e9H
	DD	01870H
	DD	0174H
	DD	06baH
	DD	0686H
	DD	0dcH
	DD	0218cH
	DD	06b4H
	DD	0599H
	DD	0227aH
	DD	02e0H
	DD	01fd8H
	DD	011dcH
	DD	01351H
	DD	014b3H
	DD	047aH
	DD	01235H
	DD	09d9H
	DD	02270H
	DD	01153H
	DD	02b3H
	DD	01af3H
	DD	0245bH
	DD	01c96H
	DD	023bdH
	DD	0170eH
	DD	01cd2H
	DD	01675H
	DD	0419H
	DD	01951H
	DD	05fbH
	DD	010d3H
	DD	062cH
	DD	0a6cH
	DD	01571H
	DD	01a93H
	DD	01acaH
	DD	0b20H
	DD	0204cH
	DD	082dH
	DD	02493H
	DD	07ddH
	DD	0447H
	DD	02117H
	DD	0627H
	DD	0225H
	DD	0140H
	DD	01f71H
	DD	01e82H
	DD	04e1H
	DD	01126H
	DD	0c01H
	DD	0167aH
	DD	068dH
	DD	065H
	DD	01e7H
	DD	071aH
	DD	0938H
	DD	019e7H
	DD	013f7H
	DD	017feH
	DD	0111aH
	DD	01dfeH
	DD	0238bH
	DD	01ebeH
	DD	0198aH
	DD	02404H
	DD	015b5H
	DD	01c17H
	DD	01a6bH
	DD	01218H
	DD	0bf2H
	DD	044dH
	DD	0708H
	DD	018d4H
	DD	025a2H
	DD	0aadH
	DD	01c1dH
	DD	0788H
	DD	0d8H
	DD	01395H
	DD	0c80H
	DD	08c2H
	DD	02279H
	DD	01674H
	DD	0120aH
	DD	01e41H
	DD	05f9H
	DD	01b1cH
	DD	02274H
	DD	02517H
	DD	0e86H
	DD	0fd8H
	DD	0feaH
	DD	018b9H
	DD	0965H
	DD	01346H
	DD	0e7bH
	DD	02106H
	DD	015daH
	DD	0343H
	DD	02126H
	DD	024f0H
	DD	0d00H
	DD	05f8H
	DD	017c1H
	DD	0151eH
	DD	0109bH
	DD	01f66H
	DD	0667H
	DD	019deH
	DD	01246H
	DD	0daH
	DD	0178H
	DD	01646H
	DD	0e04H
	DD	05f6H
	DD	01e39H
	DD	0e4aH
	DD	0727H
	DD	01b24H
	DD	0d4eH
	DD	0c7eH
	DD	0d13H
	DD	021bbH
	DD	0cd8H
	DD	039dH
	DD	036dH
	DD	0e02H
	DD	011ecH
	DD	0129fH
	DD	0270eH
	DD	0287H
	DD	06c3H
	DD	014c5H
	DD	01ce9H
	DD	011a9H
	DD	06deH
	DD	0eeeH
	DD	025f6H
	DD	015faH
	DD	01a84H
	DD	022feH
	DD	0480H
	DD	04efH
	DD	01d6cH
	DD	01b42H
	DD	022c2H
	DD	0c2dH
	DD	01404H
	DD	078H
	DD	01b43H
	DD	0ca3H
	DD	0b0H
	DD	023c0H
	DD	017b3H
	DD	0161H
	DD	01ae3H
	DD	01157H
	DD	021dfH
	DD	01292H
	DD	01ffH
	DD	02a6H
	DD	054fH
	DD	02339H
	DD	02556H
	DD	01c1bH
	DD	0233dH
	DD	0138eH
	DD	01274H
	DD	01493H
	DD	02131H
	DD	017b6H
	DD	014b4H
	DD	0bbeH
	DD	02597H
	DD	01df0H
	DD	01981H
	DD	023d2H
	DD	0f04H
	DD	026afH
	DD	0a69H
	DD	01af9H
	DD	0ec9H
	DD	01479H
	DD	017a6H
	DD	0382H
	DD	024f6H
	DD	011c4H
	DD	064cH
	DD	011c6H
	DD	017a3H
	DD	0201dH
	DD	01245H
	DD	01662H
	DD	01b21H
	DD	03bfH
	DD	013bcH
	DD	02592H
	DD	01746H
	DD	0a6fH
	DD	0197H
	DD	019c5H
	DD	0126fH
	DD	01b5eH
	DD	010feH
	DD	0175aH
	DD	01765H
	DD	02609H
	DD	01f9eH
	DD	02412H
	DD	0d54H
	DD	023e3H
	DD	01277H
	DD	01cf9H
	DD	0206cH
	DD	01093H
	DD	0e26H
	DD	01f08H
	DD	016c4H
	DD	0224fH
	DD	02416H
	DD	025ddH
	DD	01341H
	DD	023c8H
	DD	06a5H
	DD	08b9H
	DD	025c5H
	DD	0733H
	DD	01efdH
	DD	01769H
	DD	0189bH
	DD	01ba8H
	DD	0462H
	DD	0172eH
	DD	087H
	DD	02266H
	DD	0921H
	DD	01357H
	DD	024fH
	DD	020cfH
	DD	0116H
	DD	01f32H
	DD	02402H
	DD	0f78H
	DD	0e28H
	DD	06d2H
	DD	0174dH
	DD	01b45H
	DD	0122eH
	DD	0229cH
	DD	021d3H
	DD	023baH
	DD	0265fH
	DD	0124fH
	DD	01214H
	DD	0229eH
	DD	0197fH
	DD	0186bH
	DD	0212fH
	DD	019aH
	DD	01d39H
	DD	0f34H
	DD	023deH
	DD	0370H
	DD	010caH
	DD	0c84H
	DD	055dH
	DD	01a88H
	DD	012b5H
	DD	01424H
	DD	02648H
	DD	04e2H
	DD	014f3H
	DD	013ebH
	DD	01aedH
	DD	01f98H
	DD	01182H
	DD	01b3cH
	DD	01b05H
	DD	0253dH
	DD	01e81H
	DD	02589H
	DD	022e2H
	DD	0911H
	DD	0c94H
	DD	01b00H
	DD	0109cH
	DD	016ffH
	DD	0161aH
	DD	0258H
	DD	0241eH
	DD	02e7H
	DD	01f7H
	DD	0252fH
	DD	01ea8H
	DD	01711H
	DD	01036H
	DD	01a2aH
	DD	01fddH
	DD	0adaH
	DD	01024H
	DD	01ce7H
	DD	01c37H
	DD	01ad4H
	DD	0909H
	DD	01d0fH
	DD	01d5eH
	DD	0b1cH
	DD	0ad2H
	DD	01f39H
	DD	0beaH
	DD	0226fH
	DD	01b93H
	DD	0101bH
	DD	01d2bH
	DD	0c8aH
	DD	0b27H
	DD	0f64H
	DD	02452H
	DD	02315H
	DD	0c22H
	DD	01046H
	DD	0f39H
	DD	02303H
	DD	08cdH
	DD	09a7H
	DD	0146eH
	DD	011bfH
	DD	0438H
	DD	0a29H
	DD	0829H
	DD	02495H
	DD	0e6fH
	DD	01463H
	DD	0961H
	DD	01d8bH
	DD	0205dH
	DD	01df6H
	DD	0e3bH
	DD	02637H
	DD	02625H
	DD	0104aH
	DD	010c9H
	DD	0283H
	DD	01f80H
	DD	01b23H
	DD	039eH
	DD	02475H
	DD	0753H
	DD	010f3H
	DD	0774H
	DD	01309H
	DD	01df7H
	DD	0101dH
	DD	01661H
	DD	01b04H
	DD	01f21H
	DD	0173dH
	DD	022fbH
	DD	01b10H
	DD	01c19H
	DD	01H
	DD	017edH
	DD	0163bH
	DD	02477H
	DD	0c43H
	DD	01c2bH
	DD	011f3H
	DD	0bc7H
	DD	01ae8H
	DD	01270H
	DD	016b3H
	DD	0d2eH
	DD	0228aH
	DD	0136H
	DD	01273H
	DD	07e7H
	DD	01c1cH
	DD	0217cH
	DD	013faH
	DD	02563H
	DD	0143eH
	DD	02523H
	DD	02124H
	DD	026f4H
	DD	02204H
	DD	0183eH
	DD	0ebH
	DD	0ff2H
	DD	01bf3H
	DD	0100cH
	DD	0150bH
	DD	02192H
	DD	014d2H
	DD	0acH
	DD	01f6bH
	DD	0ec7H
	DD	026b6H
	DD	0c38H
	DD	05ddH
	DD	053aH
	DD	0233H
	DD	0201H
	DD	017d6H
	DD	02695H
	DD	012a4H
	DD	01968H
	DD	0869H
	DD	02bdH
	DD	0c4aH
	DD	0a4aH
	DD	020d1H
	DD	025e1H
	DD	01149H
	DD	0cdfH
	DD	01c99H
	DD	0597H
	DD	0d82H
	DD	01d3H
	DD	07feH
	DD	0c65H
	DD	0ff8H
	DD	088bH
	DD	022e0H
	DD	019a1H
	DD	0203dH
	DD	01e3dH
	DD	0268H
	DD	023aH
	DD	0e13H
	DD	01bc6H
	DD	0e9eH
	DD	0cefH
	DD	0d35H
	DD	01c77H
	DD	02486H
	DD	018a0H
	DD	01399H
	DD	01ef9H
	DD	019b5H
	DD	0e22H
	DD	01f3cH
	DD	067cH
	DD	08fcH
	DD	0e56H
	DD	0189aH
	DD	0266eH
	DD	07fH
	DD	022dH
	DD	0ecaH
	DD	021d4H
	DD	01832H
	DD	01d0cH
	DD	012aH
	DD	095bH
	DD	01193H
	DD	01456H
	DD	018dfH
	DD	01733H
	DD	01ed0H
	DD	06fbH
	DD	01ad5H
	DD	0252bH
	DD	015afH
	DD	024ffH
	DD	02165H
	DD	056eH
	DD	026e1H
	DD	018d9H
	DD	02658H
	DD	016c3H
	DD	01287H
	DD	02eaH
	DD	01597H
	DD	0a37H
	DD	022e9H
	DD	096dH
	DD	01d36H
	DD	01297H
	DD	01b6aH
	DD	0de0H
	DD	025c2H
	DD	0b6eH
	DD	019e4H
	DD	014dcH
	DD	0ac2H
	DD	056fH
	DD	0ea9H
	DD	0229bH
	DD	026e2H
	DD	0223bH
	DD	01390H
	DD	01c8H
	DD	01b87H
	DD	010deH
	DD	019adH
	DD	011e2H
	DD	020c3H
	DD	01afbH
	DD	01371H
	DD	0240eH
	DD	0a97H
	DD	0232H
	DD	01b88H
	DD	019ffH
	DD	0118bH
	DD	024d5H
	DD	02323H
	DD	0bd3H
	DD	01805H
	DD	0184dH
	DD	01deeH
	DD	01f70H
	DD	0d6eH
	DD	034dH
	DD	0debH
	DD	021ebH
	DD	01e0H
	DD	01122H
	DD	010bdH
	DD	0195aH
	DD	06a0H
	DD	0cf3H
	DD	0b5bH
	DD	01d09H
	DD	01300H
	DD	0d59H
	DD	017f4H
	DD	01959H
	DD	02421H
	DD	0bb4H
	DD	0239H
	DD	0901H
	DD	0f51H
	DD	015b6H
	DD	015f2H
	DD	016ccH
	DD	01617H
	DD	01119H
	DD	0825H
	DD	09d8H
	DD	01edcH
	DD	020b1H
	DD	09e8H
	DD	07aaH
	DD	0148cH
	DD	0273H
	DD	0857H
	DD	01adbH
	DD	0fa7H
	DD	019acH
	DD	02305H
	DD	011ddH
	DD	01a77H
	DD	0701H
	DD	01960H
	DD	02278H
	DD	013edH
	DD	01f93H
	DD	01e64H
	DD	01268H
	DD	01cb7H
	DD	02006H
	DD	01bb9H
	DD	015aH
	DD	05b1H
	DD	01903H
	DD	022b7H
	DD	0d93H
	DD	015deH
	DD	01bd7H
	DD	014d9H
	DD	016d5H
	DD	01a48H
	DD	01541H
	DD	0f91H
	DD	06ccH
	DD	0fb2H
	DD	026d7H
	DD	0510H
	DD	0213bH
	DD	01a49H
	DD	026fdH
	DD	01e79H
	DD	0101fH
	DD	017dfH
	DD	02588H
	DD	02068H
	DD	011e7H
	DD	01a6H
	DD	012fH
	DD	01c0dH
	DD	0128eH
	DD	0e6cH
	DD	0137eH
	DD	0162aH
	DD	01530H
	DD	01aa9H
	DD	01124H
	DD	01144H
	DD	0a68H
	DD	0940H
	DD	01043H
	DD	08c9H
	DD	01f48H
	DD	028aH
	DD	0535H
	DD	013deH
	DD	0141bH
	DD	0703H
	DD	0339H
	DD	01063H
	DD	01d12H
	DD	01b5bH
	DD	096eH
	DD	0204aH
	DD	02a4H
	DD	06dbH
	DD	03e0H
	DD	0193eH
	DD	022f5H
	DD	02a8H
	DD	0215eH
	DD	01619H
	DD	08baH
	DD	014c3H
	DD	01a7H
	DD	0255aH
	DD	01dfaH
	DD	022f8H
	DD	0acfH
	DD	0bb9H
	DD	0377H
	DD	080cH
	DD	011fbH
	DD	0133bH
	DD	02459H
	DD	0d87H
	DD	02467H
	DD	015a0H
	DD	02367H
	DD	01a1aH
	DD	02161H
	DD	023a4H
	DD	02451H
	DD	0405H
	DD	08d8H
	DD	02031H
	DD	0115cH
	DD	0889H
	DD	01ae1H
	DD	0233aH
	DD	020d2H
	DD	02600H
	DD	0f09H
	DD	01d06H
	DD	021cdH
	DD	0f42H
	DD	01e02H
	DD	0ecH
	DD	0768H
	DD	0576H
	DD	01879H
	DD	026fcH
	DD	019a2H
	DD	025dfH
	DD	01ae0H
	DD	03ccH
	DD	01b06H
	DD	01daaH
	DD	01db2H
	DD	01e4eH
	DD	0171bH
	DD	01928H
	DD	025d8H
	DD	01abfH
	DD	022b5H
	DD	019c0H
	DD	05d8H
	DD	0e3eH
	DD	0143aH
	DD	0179cH
	DD	0e05H
	DD	0173aH
	DD	01abcH
	DD	01238H
	DD	0139aH
	DD	0dd2H
	DD	020e2H
	DD	04fH
	DD	06c5H
	DD	01f5aH
	DD	01018H
	DD	085eH
	DD	01e95H
	DD	01582H
	DD	0824H
	DD	0217aH
	DD	068cH
	DD	0208eH
	DD	020e4H
	DD	092cH
	DD	01c0bH
	DD	09ecH
	DD	019ebH
	DD	0822H
	DD	0414H
	DD	0b62H
	DD	02e6H
	DD	013c0H
	DD	0261eH
	DD	0231cH
	DD	09d6H
	DD	019f7H
	DD	0d33H
	DD	0126bH
	DD	0250fH
	DD	01e35H
	DD	057fH
	DD	0586H
	DD	01544H
	DD	0f44H
	DD	026fbH
	DD	05aeH
	DD	02091H
	DD	0147H
	DD	09c9H
	DD	021fH
	DD	0205H
	DD	024dbH
	DD	01388H
	DD	011e1H
	DD	0f86H
	DD	037eH
	DD	01820H
	DD	0709H
	DD	01058H
	DD	067eH
	DD	015b9H
	DD	0ef5H
	DD	02170H
	DD	01a8cH
	DD	021dbH
	DD	014d1H
	DD	0132dH
	DD	0682H
	DD	011c0H
	DD	0c72H
	DD	0b54H
	DD	04dH
	DD	0144H
	DD	020b0H
	DD	02H
	DD	0229dH
	DD	010b7H
	DD	0643H
	DD	01854H
	DD	01bdfH
	DD	0143cH
	DD	07cdH
	DD	0b86H
	DD	020a3H
	DD	0a40H
	DD	013ffH
	DD	0fe7H
	DD	01c41H
	DD	0230cH
	DD	014fbH
	DD	010dbH
	DD	0c91H
	DD	0aa0H
	DD	0113eH
	DD	01e4bH
	DD	0e12H
	DD	01b7eH
	DD	0ce3H
	DD	013b9H
	DD	0210dH
	DD	01dH
	DD	013e3H
	DD	0123H
	DD	0a4H
	DD	01237H
	DD	0251aH
	DD	017fdH
	DD	048fH
	DD	0764H
	DD	020e7H
	DD	01e42H
	DD	0e89H
	DD	037bH
	DD	03cfH
	DD	019f5H
	DD	0658H
	DD	0253cH
	DD	0951H
	DD	0268bH
	DD	01fcdH
	DD	0263bH
	DD	01d5cH
	DD	074dH
	DD	0813H
	DD	0169cH
	DD	01863H
	DD	01466H
	DD	0758H
	DD	0c28H
	DD	02476H
	DD	0c78H
	DD	01facH
	DD	014deH
	DD	01753H
	DD	02614H
	DD	0106aH
	DD	0178cH
	DD	01bbH
	DD	01b1bH
	DD	0268aH
	DD	02447H
	DD	02579H
	DD	01b20H
	DD	0241dH
	DD	01573H
	DD	0234H
	DD	0211cH
	DD	0184H
	DD	0c95H
	DD	01fd5H
	DD	0f87H
	DD	0cbfH
	DD	0a49H
	DD	06e3H
	DD	025abH
	DD	0c7bH
	DD	022daH
	DD	01185H
	DD	01121H
	DD	0779H
	DD	096fH
	DD	011cfH
	DD	01173H
	DD	049dH
	DD	01afcH
	DD	017abH
	DD	016cbH
	DD	0154aH
	DD	02051H
	DD	0b43H
	DD	01a10H
	DD	0f4dH
	DD	0114eH
	DD	024c6H
	DD	0310H
	DD	01230H
	DD	011f5H
	DD	0222fH
	DD	04daH
	DD	01948H
	DD	01efaH
	DD	01e68H
	DD	018e8H
	DD	0ef9H
	DD	01deaH
	DD	01a0dH
	DD	01c35H
	DD	010d7H
	DD	0303H
	DD	0206dH
	DD	0eb1H
	DD	0899H
	DD	0175bH
	DD	041bH
	DD	0517H
	DD	0e53H
	DD	0982H
	DD	0107cH
	DD	02544H
	DD	05a9H
	DD	0103eH
	DD	0917H
	DD	01092H
	DD	0105H
	DD	074eH
	DD	018f1H
	DD	0967H
	DD	01c70H
	DD	0b9fH
	DD	01875H
	DD	03a2H
	DD	0224eH
	DD	01b4eH
	DD	0803H
	DD	0f38H
	DD	01143H
	DD	0e38H
	DD	0160aH
	DD	05beH
	DD	0219H
	DD	02089H
	DD	04a1H
	DD	0cf4H
	DD	0141eH
	DD	01ef4H
	DD	0589H
	DD	09ddH
	DD	01502H
	DD	01dc1H
	DD	01c5fH
	DD	01211H
	DD	0e33H
	DD	01921H
	DD	024d8H
	DD	01146H
	DD	01b71H
	DD	0274H
	DD	01f6aH
	DD	0204bH
	DD	099aH
	DD	031H
	DD	020d8H
	DD	0ff6H
	DD	017baH
	DD	0ee4H
	DD	0652H
	DD	02453H
	DD	0194aH
	DD	0269fH
	DD	0b21H
	DD	014f9H
	DD	0175eH
	DD	08a3H
	DD	01feH
	DD	0f58H
	DD	0139H
	DD	0d84H
	DD	0218dH
	DD	02299H
	DD	0365H
	DD	04abH
	DD	0e4H
	DD	0ca1H
	DD	0260dH
	DD	0835H
	DD	0b3bH
	DD	0500H
	DD	0e15H
	DD	0511H
	DD	0f18H
	DD	01f7dH
	DD	0144cH
	DD	019e1H
	DD	02133H
	DD	01596H
	DD	0261cH
	DD	0264aH
	DD	061cH
	DD	01cddH
	DD	0edcH
	DD	012f3H
	DD	0dfH
	DD	03f1H
	DD	073eH
	DD	05b7H
	DD	026f6H
	DD	01c34H
	DD	08adH
	DD	013a6H
	DD	013f6H
	DD	0620H
	DD	0614H
	DD	0261bH
	DD	023bcH
	DD	020edH
	DD	01cd1H
	DD	0e3H
	DD	079dH
	DD	045H
	DD	0777H
	DD	0df0H
	DD	04dcH
	DD	020d3H
	DD	01d6aH
	DD	01373H
	DD	0e1aH
	DD	0108cH
	DD	01e54H
	DD	01c43H
	DD	02586H
	DD	0c31H
	DD	0b2aH
	DD	0130dH
	DD	0231bH
	DD	0ca8H
	DD	045aH
	DD	01ddaH
	DD	01007H
	DD	01db0H
	DD	0cbeH
	DD	014a3H
	DD	01e90H
	DD	021f7H
	DD	013e4H
	DD	0a07H
	DD	018b3H
	DD	0512H
	DD	01742H
	DD	0fddH
	DD	01450H
	DD	01492H
	DD	020f1H
	DD	010d8H
	DD	01216H
	DD	01669H
	DD	0690H
	DD	0af1H
	DD	01eb3H
	DD	0120dH
	DD	024b9H
	DD	01a66H
	DD	01e23H
	DD	09eaH
	DD	01d77H
	DD	04a3H
	DD	02107H
	DD	07e8H
	DD	0d9fH
	DD	0488H
	DD	0f3cH
	DD	0117eH
	DD	030cH
	DD	02334H
	DD	0f2aH
	DD	0c04H
	DD	02352H
	DD	01858H
	DD	01446H
	DD	01692H
	DD	015f7H
	DD	0c76H
	DD	01f13H
	DD	02376H
	DD	0115dH
	DD	02017H
	DD	07e3H
	DD	0127aH
	DD	01453H
	DD	0873H
	DD	010eaH
	DD	01c6aH
	DD	0c63H
	DD	01d3eH
	DD	0b28H
	DD	0123bH
	DD	0636H
	DD	03f7H
	DD	0145dH
	DD	01c3dH
	DD	02083H
	DD	01f29H
	DD	01c85H
	DD	0c8bH
	DD	022d7H
	DD	024faH
	DD	05cdH
	DD	0407H
	DD	01602H
	DD	08cbH
	DD	011c8H
	DD	0d25H
	DD	018d0H
	DD	01da9H
	DD	071H
	DD	08e0H
	DD	0240H
	DD	01b2H
	DD	01f46H
	DD	0bdfH
	DD	02481H
	DD	0a88H
	DD	016f4H
	DD	0c86H
	DD	02627H
	DD	01429H
	DD	01eb8H
	DD	03bcH
	DD	02302H
	DD	014eeH
	DD	0120eH
	DD	0b34H
	DD	0172cH
	DD	040bH
	DD	01906H
	DD	018eeH
	DD	0fa0H
	DD	03ffH
	DD	01076H
	DD	012dH
	DD	01e3eH
	DD	018bbH
	DD	0167cH
	DD	0160dH
	DD	0203aH
	DD	0508H
	DD	021c8H
	DD	03a8H
	DD	0267dH
	DD	0975H
	DD	01601H
	DD	01760H
	DD	01883H
	DD	0c8dH
	DD	017e9H
	DD	015c4H
	DD	020a5H
	DD	0532H
	DD	017acH
	DD	01b4H
	DD	01bb1H
	DD	02158H
	DD	01f9fH
	DD	015efH
	DD	0413H
	DD	01e4dH
	DD	0441H
	DD	012fcH
	DD	0704H
	DD	0264cH
	DD	0a4eH
	DD	0369H
	DD	01468H
	DD	0a70H
	DD	0ceH
	DD	01956H
	DD	01932H
	DD	01ec8H
	DD	01c09H
	DD	0309H
	DD	01244H
	DD	015acH
	DD	011abH
	DD	02f8H
	DD	01510H
	DD	016d8H
	DD	01044H
	DD	0a8cH
	DD	020e1H
	DD	02048H
	DD	01ca0H
	DD	01592H
	DD	07a8H
	DD	01ff7H
	DD	0fccH
	DD	092eH
	DD	047cH
	DD	0d5cH
	DD	01439H
	DD	0af2H
	DD	0ea5H
	DD	012d0H
	DD	01eebH
	DD	0d73H
	DD	0242cH
	DD	0404H
	DD	01e92H
	DD	01886H
	DD	01204H
	DD	0b67H
	DD	013d8H
	DD	02f0H
	DD	01626H
	DD	01e2H
	DD	02edH
	DD	022c6H
	DD	021baH
	DD	02660H
	DD	0eaaH
	DD	01069H
	DD	01892H
	DD	0abH
	DD	0d21H
	DD	0d94H
	DD	02596H
	DD	0418H
	DD	049bH
	DD	013f8H
	DD	0f59H
	DD	019d7H
	DD	02013H
	DD	0132bH
	DD	0153bH
	DD	015beH
	DD	01ff9H
	DD	03d8H
	DD	06feH
	DD	014a1H
	DD	01a8aH
	DD	0b8cH
	DD	01f78H
	DD	01a20H
	DD	0164aH
	DD	02140H
	DD	013bbH
	DD	0214aH
	DD	017b7H
	DD	0ac9H
	DD	019d6H
	DD	0230bH
	DD	02454H
	DD	012cbH
	DD	062fH
	DD	02020H
	DD	025a4H
	DD	01bdaH
	DD	01145H
	DD	027eH
	DD	01fe2H
	DD	01b72H
	DD	0800H
	DD	0248H
	DD	043aH
	DD	01cc8H
	DD	0c06H
	DD	0af0H
	DD	0c48H
	DD	022afH
	DD	04e3H
	DD	01f5bH
	DD	010d1H
	DD	0df1H
	DD	0841H
	DD	026e9H
	DD	05c7H
	DD	0bd1H
	DD	023d3H
	DD	0e4fH
	DD	01f85H
	DD	010c7H
	DD	01b19H
	DD	0494H
	DD	013d0H
	DD	0250dH
	DD	014cbH
	DD	0c1bH
	DD	0260cH
	DD	0d83H
	DD	01cdbH
	DD	01432H
	DD	01fb6H
	DD	02565H
	DD	020baH
	DD	01b6bH
	DD	01878H
	DD	025cdH
	DD	0796H
	DD	0149fH
	DD	06f4H
	DD	01c79H
	DD	02100H
	DD	098aH
	DD	09faH
	DD	024fcH
	DD	023b8H
	DD	016d2H
	DD	02362H
	DD	0f0eH
	DD	01167H
	DD	02dbH
	DD	01d5fH
	DD	024fdH
	DD	0a5bH
	DD	063fH
	DD	05dcH
	DD	0107eH
	DD	0276H
	DD	01473H
	DD	0893H
	DD	023dH
	DD	02504H
	DD	07d0H
	DD	0fc3H
	DD	01c9aH
	DD	013c5H
	DD	095dH
	DD	01b03H
	DD	01fd1H
	DD	01684H
	DD	0503H
	DD	0635H
	DD	02275H
	DD	01a2bH
	DD	01e94H
	DD	02708H
	DD	01995H
	DD	0230eH
	DD	061H
	DD	01c5H
	DD	0fafH
	DD	0b71H
	DD	01a8eH
	DD	0152H
	DD	0142bH
	DD	0258aH
	DD	0bf1H
	DD	0132fH
	DD	0121eH
	DD	0ecdH
	DD	01bfdH
	DD	0331H
	DD	01cbdH
	DD	01859H
	DD	04b0H
	DD	026eaH
	DD	0251dH
	DD	01f88H
	DD	010b5H
	DD	0176eH
	DD	01c3eH
	DD	09e7H
	DD	0793H
	DD	015e7H
	DD	0628H
	DD	01755H
	DD	012deH
	DD	09f8H
	DD	02594H
	DD	0202aH
	DD	01b07H
	DD	012c9H
	DD	049eH
	DD	027aH
	DD	02264H
	DD	0410H
	DD	0100bH
	DD	025adH
	DD	0221H
	DD	0117cH
	DD	01d0aH
	DD	01029H
	DD	02702H
	DD	01213H
	DD	0145fH
	DD	019a9H
	DD	0685H
	DD	02223H
	DD	020ecH
	DD	01e5eH
	DD	06a6H
	DD	01219H
	DD	0dd5H
	DD	01fcbH
	DD	0fb9H
	DD	0f82H
	DD	02c4H
	DD	0cbdH
	DD	0b74H
	DD	0162fH
	DD	0380H
	DD	03dfH
	DD	035eH
	DD	0922H
	DD	097dH
	DD	0ae5H
	DD	0751H
	DD	0a36H
	DD	022e1H
	DD	01578H
	DD	0227H
	DD	0a22H
	DD	022c5H
	DD	07fdH
	DD	0f5H
	DD	067H
	DD	015c7H
	DD	0b3fH
	DD	02647H
	DD	071fH
	DD	024efH
	DD	01368H
	DD	0111bH
	DD	018d8H
	DD	01f4eH
	DD	01aa2H
	DD	026c6H
	DD	0b84H
	DD	025c0H
	DD	0e9aH
	DD	052aH
	DD	0eb5H
	DD	0b07H
	DD	03f8H
	DD	01a9H
	DD	0330H
	DD	07b7H
	DD	02034H
	DD	0fe4H
	DD	01041H
	DD	0e21H
	DD	0131dH
	DD	0b0bH
	DD	01ba5H
	DD	01227H
	DD	02377H
	DD	01d07H
	DD	06a3H
	DD	0227cH
	DD	0171H
	DD	01b55H
	DD	09ffH
	DD	01b33H
	DD	0b5fH
	DD	017c6H
	DD	0581H
	DD	02166H
	DD	0270dH
	DD	0254fH
	DD	01cbeH
	DD	013c4H
	DD	01103H
	DD	01fdbH
	DD	0997H
	DD	017f3H
	DD	01c4cH
	DD	01b0eH
	DD	0236dH
	DD	01589H
	DD	026c0H
	DD	09a1H
	DD	01139H
	DD	01ff5H
	DD	0169dH
	DD	02687H
	DD	0fdaH
	DD	0118aH
	DD	026e5H
	DD	0257H
	DD	01bdeH
	DD	02623H
	DD	014a4H
	DD	03d9H
	DD	01826H
	DD	01c0fH
	DD	01624H
	DD	02539H
	DD	01a15H
	DD	0f0fH
	DD	0a86H
	DD	01bb0H
	DD	014b5H
	DD	01ecbH
	DD	026f7H
	DD	01ebcH
	DD	014cdH
	DD	01988H
	DD	02381H
	DD	024a1H
	DD	01d27H
	DD	015e8H
	DD	013e2H
	DD	01c7dH
	DD	02312H
	DD	01fa6H
	DD	013c7H
	DD	010edH
	DD	0a62H
	DD	02019H
	DD	01633H
	DD	01415H
	DD	053fH
	DD	0d26H
	DD	0a63H
	DD	02296H
	DD	01977H
	DD	014e2H
	DD	03d7H
	DD	019e6H
	DD	0232cH
	DD	010b6H
	DD	0a39H
	DD	03b4H
	DD	0209eH
	DD	03e7H
	DD	01b29H
	DD	01588H
	DD	011b4H
	DD	02ceH
	DD	01d3dH
	DD	01d5dH
	DD	013f1H
	DD	0a76H
	DD	08dH
	DD	0ea6H
	DD	01bdH
	DD	02336H
	DD	02360H
	DD	01320H
	DD	0f56H
	DD	0adbH
	DD	0818H
	DD	0129dH
	DD	0217bH
	DD	0691H
	DD	01f41H
	DD	01536H
	DD	0130fH
	DD	01772H
	DD	040aH
	DD	01258H
	DD	0125dH
	DD	0fcfH
	DD	0d30H
	DD	0262H
	DD	022bH
	DD	0693H
	DD	0872H
	DD	0150eH
	DD	01fabH
	DD	0128bH
	DD	0409H
	DD	021c7H
	DD	0e17H
	DD	0f93H
	DD	017ecH
	DD	0ebfH
	DD	08a0H
	DD	0c1dH
	DD	01b9cH
	DD	0948H
	DD	01a5dH
	DD	0604H
	DD	0183aH
	DD	0174fH
	DD	01c6H
	DD	0ba7H
	DD	0f2H
	DD	0162dH
	DD	0c83H
	DD	02445H
	DD	0e61H
	DD	0f01H
	DD	02551H
	DD	01ef3H
	DD	0156eH
	DD	05afH
	DD	02484H
	DD	0527H
	DD	0765H
	DD	01dceH
	DD	0148fH
	DD	081H
	DD	0e08H
	DD	039cH
	DD	0e68H
	DD	0234aH
	DD	013a5H
	DD	0135eH
	DD	08dbH
	DD	01e32H
	DD	0200H
	DD	023aaH
	DD	026bH
	DD	012bH
	DD	010c6H
	DD	01adeH
	DD	02554H
	DD	03d4H
	DD	01bd4H
	DD	018b4H
	DD	01307H
	DD	019bcH
	DD	01644H
	DD	0212cH
	DD	0e14H
	DD	0a9bH
	DD	0acdH
	DD	01454H
	DD	0b0aH
	DD	01f45H
	DD	023afH
	DD	019dfH
	DD	02157H
	DD	01e48H
	DD	01847H
	DD	0218H
	DD	01420H
	DD	0fa2H
	DD	023dfH
	DD	0d22H
	DD	02384H
	DD	01e5aH
	DD	02304H
	DD	015fdH
	DD	026c7H
	DD	0166cH
	DD	0b2eH
	DD	01286H
	DD	0e1H
	DD	08f0H
	DD	01cccH
	DD	0ed6H
	DD	044fH
	DD	01340H
	DD	02510H
	DD	0184bH
	DD	0163aH
	DD	0113cH
	DD	03b2H
	DD	0199bH
	DD	0247eH
	DD	01442H
	DD	01f9H
	DD	02374H
	DD	06b2H
	DD	0c00H
	DD	010cfH
	DD	0c6dH
	DD	01113H
	DD	01888H
	DD	0bcbH
	DD	0d2dH
	DD	02032H
	DD	08a5H
	DD	0104bH
	DD	0600H
	DD	020e5H
	DD	0b4H
	DD	06d4H
	DD	0a2H
	DD	0127bH
	DD	01c89H
	DD	02199H
	DD	01240H
	DD	0b9eH
	DD	021e5H
	DD	0a2fH
	DD	0c07H
	DD	0135bH
	DD	01a9fH
	DD	0fefH
	DD	0195cH
	DD	07a9H
	DD	0106eH
	DD	0a04H
	DD	0492H
	DD	017eaH
	DD	0844H
	DD	0fc0H
	DD	0a02H
	DD	0e73H
	DD	01a4aH
	DD	08c4H
	DD	0d5dH
	DD	013d4H
	DD	023b1H
	DD	0dacH
	DD	02496H
	DD	0127cH
	DD	03c5H
	DD	020eeH
	DD	01a8bH
	DD	014c7H
	DD	0162eH
	DD	03aaH
	DD	0aa1H
	DD	010fdH
	DD	017b1H
	DD	01413H
	DD	018fcH
	DD	01e31H
	DD	0d34H
	DD	020c4H
	DD	013beH
	DD	01c15H
	DD	0246cH
	DD	09feH
	DD	025a8H
	DD	01dacH
	DD	0169fH
	DD	02144H
	DD	09b9H
	DD	010f6H
	DD	0202fH
	DD	0f36H
	DD	010d9H
	DD	01e61H
	DD	0520H
	DD	016c7H
	DD	01ec4H
	DD	0241bH
	DD	0e54H
	DD	01bf5H
	DD	01eacH
	DD	020cdH
	DD	0f31H
	DD	01028H
	DD	04f2H
	DD	0170bH
	DD	012e7H
	DD	01781H
	DD	04a7H
	DD	039H
	DD	024b1H
	DD	025a5H
	DD	01105H
	DD	0abaH
	DD	030fH
	DD	02d3H
	DD	089cH
	DD	0608H
	DD	012a1H
	DD	0fa1H
	DD	0235cH
	DD	01295H
	DD	01f4dH
	DD	025fH
	DD	0ba9H
	DD	0128H
	DD	0feeH
	DD	0561H
	DD	0112fH
	DD	02f2H
	DD	0241cH
	DD	01380H
	DD	0337H
	DD	0d0dH
	DD	01014H
	DD	010b9H
	DD	023e6H
	DD	0228fH
	DD	0c08H
	DD	0269aH
	DD	0898H
	DD	02baH
	DD	01130H
	DD	01d6fH
	DD	01756H
	DD	01ee2H
	DD	01397H
	DD	0bc2H
	DD	01ec9H
	DD	01c69H
	DD	03e5H
	DD	0be9H
	DD	0144eH
	DD	0a82H
	DD	01fb7H
	DD	02189H
	DD	0efcH
	DD	011f4H
	DD	0560H
	DD	021a9H
	DD	021b6H
	DD	06e4H
	DD	01dcfH
	DD	0ae8H
	DD	0767H
	DD	086cH
	DD	01350H
	DD	01260H
	DD	0112cH
	DD	0108bH
	DD	017a2H
	DD	06f3H
	DD	0258eH
	DD	0e1cH
	DD	01e58H
	DD	012f0H
	DD	0111fH
	DD	02630H
	DD	0224H
	DD	01da6H
	DD	0f6bH
	DD	01de4H
	DD	018c5H
	DD	02246H
	DD	01bf4H
	DD	07d5H
	DD	01a44H
	DD	03f2H
	DD	0705H
	DD	01dbH
	DD	01e19H
	DD	02419H
	DD	01222H
	DD	01659H
	DD	0164bH
	DD	0be5H
	DD	01523H
	DD	02061H
	DD	067dH
	DD	015b8H
	DD	0b0fH
	DD	0147aH
	DD	0226eH
	DD	01a16H
	DD	0826H
	DD	0378H
	DD	01318H
	DD	0190cH
	DD	01eb2H
	DD	01ca2H
	DD	01224H
	DD	05cfH
	DD	0657H
	DD	02400H
	DD	0237eH
	DD	012d4H
	DD	06d5H
	DD	021b7H
	DD	02324H
	DD	0a1eH
	DD	02671H
	DD	089bH
	DD	0621H
	DD	0544H
	DD	01101H
	DD	021b1H
	DD	0fa5H
	DD	0169H
	DD	03e4H
	DD	01026H
	DD	08daH
	DD	0596H
	DD	0ac1H
	DD	01ecdH
	DD	0110dH
	DD	01627H
	DD	0b80H
	DD	0c4H
	DD	092dH
	DD	0219dH
	DD	023a3H
	DD	012b3H
	DD	015e5H
	DD	0f6dH
	DD	01ac5H
	DD	014cfH
	DD	0ab0H
	DD	01808H
	DD	0197dH
	DD	0aaaH
	DD	01abeH
	DD	0209H
	DD	02e5H
	DD	0412H
	DD	02286H
	DD	0864H
	DD	01d0H
	DD	01cd4H
	DD	02a7H
	DD	0ad4H
	DD	01faeH
	DD	0199aH
	DD	0ca9H
	DD	020ebH
	DD	0ddfH
	DD	01e6fH
	DD	01712H
	DD	058eH
	DD	0351H
	DD	0b22H
	DD	02b7H
	DD	01ffbH
	DD	01ed6H
	DD	015c9H
	DD	023bfH
	DD	013d1H
	DD	021f3H
	DD	0bc4H
	DD	024a6H
	DD	01ebdH
	DD	0985H
	DD	01e28H
	DD	026dcH
	DD	0132H
	DD	012bcH
	DD	01dbbH
	DD	0632H
	DD	08H
	DD	02272H
	DD	0be0H
	DD	0121bH
	DD	025dbH
	DD	09f1H
	DD	08e3H
	DD	012baH
	DD	0eabH
	DD	022f7H
	DD	023cdH
	DD	0195bH
	DD	0126cH
	DD	0650H
	DD	01727H
	DD	01c6bH
	DD	07c2H
	DD	01037H
	DD	0ffeH
	DD	051dH
	DD	0171eH
	DD	025e4H
	DD	0b0cH
	DD	016abH
	DD	01b02H
	DD	0179aH
	DD	01495H
	DD	025dH
	DD	0c14H
	DD	01976H
	DD	01695H
	DD	020c2H
	DD	012eeH
	DD	0160H
	DD	019eaH
	DD	01cf6H
	DD	0c8H
	DD	0263eH
	DD	0246aH
	DD	026cbH
	DD	018ceH
	DD	0249aH
	DD	0346H
	DD	0e47H
	DD	01911H
	DD	02558H
	DD	0d43H
	DD	0384H
	DD	0af8H
	DD	0bcfH
	DD	07b0H
	DD	09c7H
	DD	01edaH
	DD	02119H
	DD	017bbH
	DD	04baH
	DD	022e6H
	DD	08b0H
	DD	01a67H
	DD	019aeH
	DD	019c6H
	DD	01ca3H
	DD	0f69H
	DD	0819H
	DD	0daaH
	DD	0408H
	DD	013ddH
	DD	01283H
	DD	01263H
	DD	0313H
	DD	01f59H
	DD	02023H
	DD	011f6H
	DD	0c2fH
	DD	011c2H
	DD	015d5H
	DD	01ddfH
	DD	0bbbH
	DD	01796H
	DD	08ddH
	DD	02004H
	DD	0fffH
	DD	0205fH
	DD	0fb3H
	DD	0104eH
	DD	0231H
	DD	093dH
	DD	014c2H
	DD	012b1H
	DD	01f18H
	DD	0196aH
	DD	01282H
	DD	020a6H
	DD	0236cH
	DD	0374H
	DD	02573H
	DD	0366H
	DD	02582H
	DD	019b1H
	DD	01e3bH
	DD	024e8H
	DD	01201H
	DD	0a48H
	DD	0e74H
	DD	0a0cH
	DD	01a12H
	DD	01ea4H
	DD	0e5dH
	DD	01f84H
	DD	02188H
	DD	01276H
	DD	01017H
	DD	01f87H
	DD	0192eH
	DD	01971H
	DD	09e2H
	DD	01c95H
	DD	01baeH
	DD	0113dH
	DD	0182dH
	DD	0d7bH
	DD	02616H
	DD	01632H
	DD	0ab6H
	DD	01f03H
	DD	01364H
	DD	01452H
	DD	02127H
	DD	01722H
	DD	0e20H
	DD	0698H
	DD	010f5H
	DD	019ecH
	DD	01d65H
	DD	03f0H
	DD	01045H
	DD	03a3H
	DD	015c3H
	DD	017b5H
	DD	02706H
	DD	01c80H
	DD	01d81H
	DD	0265dH
	DD	0c41H
	DD	0421H
	DD	0ae2H
	DD	02c3H
	DD	0128aH
	DD	02703H
	DD	01bc3H
	DD	0c2cH
	DD	0175H
	DD	0c88H
	DD	01020H
	DD	03eeH
	DD	07b1H
	DD	033aH
	DD	01d84H
	DD	0131eH
	DD	0e50H
	DD	0f16H
	DD	02d1H
	DD	0ec8H
	DD	0b8bH
	DD	01cfcH
	DD	01bd1H
	DD	02220H
	DD	02673H
	DD	0d9dH
	DD	010e3H
	DD	0d07H
	DD	0843H
	DD	02355H
	DD	072aH
	DD	0234eH
	DD	0317H
	DD	0133dH
	DD	094H
	DD	091cH
	DD	014a2H
	DD	019d2H
	DD	0e4cH
	DD	01339H
	DD	02075H
	DD	0eb6H
	DD	020aeH
	DD	0165bH
	DD	011ffH
	DD	01086H
	DD	0b7H
	DD	013d5H
	DD	0bcdH
	DD	0913H
	DD	047H
	DD	03b5H
	DD	01be6H
	DD	01c01H
	DD	01dd8H
	DD	01f25H
	DD	024f1H
	DD	023d1H
	DD	01fd6H
	DD	0e67H
	DD	01720H
	DD	01954H
	DD	01159H
	DD	0fb5H
	DD	01741H
	DD	050eH
	DD	0155aH
	DD	02149H
	DD	01275H
	DD	0918H
	DD	0f00H
	DD	0cdaH
	DD	02636H
	DD	010H
	DD	0257cH
	DD	02309H
	DD	016c1H
	DD	0de5H
	DD	01dd3H
	DD	0a5H
	DD	053cH
	DD	019f9H
	DD	01ee7H
	DD	080dH
	DD	031aH
	DD	017ebH
	DD	0147cH
	DD	02346H
	DD	0f97H
	DD	019d3H
	DD	0a54H
	DD	0e18H
	DD	02284H
	DD	0840H
	DD	01ff3H
	DD	015fcH
	DD	01885H
	DD	01e86H
	DD	01128H
	DD	0526H
	DD	01070H
	DD	0f4cH
	DD	0b55H
	DD	059eH
	DD	01cb2H
	DD	0fc9H
	DD	0244eH
	DD	01a17H
	DD	07aH
	DD	01f1dH
	DD	0a92H
	DD	010b8H
	DD	012ffH
	DD	03c3H
	DD	0aecH
	DD	01d8fH
	DD	0719H
	DD	01fbfH
	DD	0131H
	DD	0bdeH
	DD	03abH
	DD	01585H
	DD	0347H
	DD	0870H
	DD	0de8H
	DD	01a0aH
	DD	01a4dH
	DD	01974H
	DD	01ab6H
	DD	01ac1H
	DD	0261fH
	DD	0fc5H
	DD	0cb6H
	DD	0bbH
	DD	0ae7H
	DD	01406H
	DD	0ed3H
	DD	0291H
	DD	0ce9H
	DD	05dbH
	DD	012afH
	DD	0929H
	DD	01ca4H
	DD	0ebaH
	DD	010a0H
	DD	01f64H
	DD	02482H
	DD	0f7H
	DD	01d3cH
	DD	012d9H
	DD	01d70H
	DD	0125aH
	DD	097eH
	DD	0de2H
	DD	054eH
	DD	02dfH
	DD	098H
	DD	0a1bH
	DD	01603H
	DD	06caH
	DD	0a89H
	DD	0267fH
	DD	011d2H
	DD	02456H
	DD	0245dH
	DD	0b92H
	DD	072cH
	DD	0111cH
	DD	02090H
	DD	01f38H
	DD	01636H
	DD	018H
	DD	03a0H
	DD	01c81H
	DD	06a4H
	DD	01993H
	DD	01abbH
	DD	0950H
	DD	0738H
	DD	01b17H
	DD	0157eH
	DD	071bH
	DD	0caeH
	DD	0992H
	DD	01ceaH
	DD	0726H
	DD	0cd5H
	DD	0193H
	DD	012a2H
	DD	0df6H
	DD	018aaH
	DD	010c3H
	DD	018b1H
	DD	01a53H
	DD	01915H
	DD	02516H
	DD	08b7H
	DD	01ee9H
	DD	024ccH
	DD	0119H
	DD	08b1H
	DD	017d3H
	DD	04c5H
	DD	0426H
	DD	015d4H
	DD	0550H
	DD	01252H
	DD	02146H
	DD	0107H
	DD	021a6H
	DD	010bbH
	DD	023eeH
	DD	0355H
	DD	0153H
	DD	03c7H
	DD	01a9cH
	DD	016beH
	DD	09f5H
	DD	010d5H
	DD	013dfH
	DD	01df8H
	DD	03b1H
	DD	0256bH
	DD	01732H
	DD	05a0H
	DD	01ff1H
	DD	0858H
	DD	0e7dH
	DD	0cbaH
	DD	01c26H
	DD	02b5H
	DD	0a33H
	DD	0bcH
	DD	0571H
	DD	04eH
	DD	0266cH
	DD	01635H
	DD	055fH
	DD	01b0aH
	DD	010efH
	DD	012b2H
	DD	0e39H
	DD	010aH
	DD	01f17H
	DD	0b52H
	DD	0e23H
	DD	0270fH
	DD	01b36H
	DD	01175H
	DD	01e0aH
	DD	0849H
	DD	0240fH
	DD	0206fH
	DD	020b3H
	DD	03c8H
	DD	0fdeH
	DD	0bb6H
	DD	01ef6H
	DD	0630H
	DD	018cH
	DD	01e84H
	DD	038H
	DD	0d4aH
	DD	019b4H
	DD	01900H
	DD	016d1H
	DD	015a4H
	DD	011bH
	DD	096bH
	DD	026c5H
	DD	0861H
	DD	02ecH
	DD	01d55H
	DD	0747H
	DD	01c92H
	DD	01141H
	DD	019e9H
	DD	0f19H
	DD	0145cH
	DD	0215cH
	DD	0268dH
	DD	017afH
	DD	0f08H
	DD	0919H
	DD	011a0H
	DD	01e80H
	DD	017c4H
	DD	0251cH
	DD	0d32H
	DD	01053H
	DD	02583H
	DD	0402H
	DD	01788H
	DD	016e4H
	DD	013cfH
	DD	01e43H
	DD	067fH
	DD	0128fH
	DD	0bdcH
	DD	01e91H
	DD	01f6dH
	DD	0221aH
	DD	0886H
	DD	01fe8H
	DD	0116dH
	DD	01c4fH
	DD	06beH
	DD	022ffH
	DD	01212H
	DD	01485H
	DD	01865H
	DD	01b0H
	DD	01cfbH
	DD	0122H
	DD	04ceH
	DD	0256H
	DD	01b80H
	DD	01ef2H
	DD	04cbH
	DD	014f6H
	DD	021e7H
	DD	03H
	DD	02310H
	DD	068bH
	DD	016bfH
	DD	0dddH
	DD	01f3fH
	DD	023d7H
	DD	0aa9H
	DD	026f8H
	DD	0ce2H
	DD	01545H
	DD	0874H
	DD	0176H
	DD	0120bH
	DD	024a5H
	DD	095eH
	DD	01c4bH
	DD	018faH
	DD	0344H
	DD	0191aH
	DD	057bH
	DD	03afH
	DD	0f5eH
	DD	0278H
	DD	01b59H
	DD	036cH
	DD	0197aH
	DD	017H
	DD	01fa3H
	DD	01eb9H
	DD	01ac2H
	DD	01f30H
	DD	01965H
	DD	01e6H
	DD	02000H
	DD	023e7H
	DD	01775H
	DD	01b61H
	DD	0607H
	DD	01505H
	DD	0158dH
	DD	01a99H
	DD	01e22H
	DD	01294H
	DD	010a8H
	DD	014f8H
	DD	0712H
	DD	0fbdH
	DD	02332H
	DD	025deH
	DD	023ceH
	DD	01fbH
	DD	0e84H
	DD	0114H
	DD	02184H
	DD	022b4H
	DD	05adH
	DD	073bH
	DD	0221bH
	DD	01081H
	DD	01d78H
	DD	026e7H
	DD	02612H
	DD	01249H
	DD	06abH
	DD	0f8eH
	DD	024e6H
	DD	012d2H
	DD	018e6H
	DD	0237aH
	DD	010daH
	DD	01a7fH
	DD	0f92H
	DD	0b58H
	DD	02240H
	DD	0112bH
	DD	0724H
	DD	016a2H
	DD	0422H
	DD	02520H
	DD	0122dH
	DD	01737H
	DD	078fH
	DD	01fa0H
	DD	0e5bH
	DD	013c3H
	DD	0deH
	DD	0661H
	DD	02115H
	DD	012ebH
	DD	01ebH
	DD	01a32H
	DD	08b3H
	DD	014efH
	DD	01da2H
	DD	013c1H
	DD	034bH
	DD	019c7H
	DD	018a8H
	DD	0814H
	DD	01c6cH
	DD	011b9H
	DD	0804H
	DD	016eaH
	DD	022ebH
	DD	0a09H
	DD	02368H
	DD	024d1H
	DD	020c8H
	DD	01841H
	DD	020acH
	DD	013ecH
	DD	02203H
	DD	02269H
	DD	017e7H
	DD	0187bH
	DD	0ee8H
	DD	01d8H
	DD	01da0H
	DD	023f7H
	DD	02f3H
	DD	01c60H
	DD	0139eH
	DD	0daeH
	DD	01614H
	DD	02545H
	DD	01ad7H
	DD	01eecH
	DD	0181H
	DD	022b8H
	DD	016dfH
	DD	021acH
	DD	01f5eH
	DD	02168H
	DD	015a1H
	DD	05fcH
	DD	03e8H
	DD	0d7dH
	DD	083bH
	DD	0feH
	DD	020f6H
	DD	0cf5H
	DD	014baH
	DD	019d1H
	DD	07d2H
	DD	0792H
	DD	0b7bH
	DD	0204fH
	DD	01688H
	DD	02526H
	DD	0744H
	DD	0fe5H
	DD	07bH
	DD	017ddH
	DD	01713H
	DD	018b7H
	DD	04faH
	DD	01c90H
	DD	01bbaH
	DD	07ecH
	DD	024f4H
	DD	0ffcH
	DD	02472H
	DD	01ff0H
	DD	023caH
	DD	0293H
	DD	020b7H
	DD	0253aH
	DD	01200H
	DD	0246bH
	DD	01ce8H
	DD	0faeH
	DD	08f6H
	DD	09e3H
	DD	012d3H
	DD	0240cH
	DD	01f04H
	DD	0198H
	DD	01560H
	DD	01179H
	DD	05bbH
	DD	015caH
	DD	012d5H
	DD	0224cH
	DD	021f8H
	DD	080eH
	DD	019f3H
	DD	05e3H
	DD	021f9H
	DD	016deH
	DD	015bfH
	DD	0151bH
	DD	013ccH
	DD	0183dH
	DD	0cb5H
	DD	013aeH
	DD	01c27H
	DD	0162H
	DD	06aaH
	DD	011a7H
	DD	0c64H
	DD	04d3H
	DD	0aefH
	DD	0117fH
	DD	01bbfH
	DD	017c0H
	DD	0837H
	DD	0cc1H
	DD	0bfeH
	DD	01c84H
	DD	0198dH
	DD	0117aH
	DD	01a28H
	DD	0e63H
	DD	01d89H
	DD	0fe8H
	DD	0646H
	DD	025a7H
	DD	09c2H
	DD	01cf7H
	DD	016aaH
	DD	01030H
	DD	0d17H
	DD	01beH
	DD	01137H
	DD	0671H
	DD	0261dH
	DD	017faH
	DD	09edH
	DD	015e1H
	DD	018a6H
	DD	0ea8H
	DD	020d4H
	DD	02661H
	DD	0781H
	DD	010cH
	DD	01773H
	DD	01cffH
	DD	014b8H
	DD	019c3H
	DD	01f8bH
	DD	02191H
	DD	0197eH
	DD	02333H
	DD	0185H
	DD	0201cH
	DD	0e78H
	DD	01062H
	DD	0c62H
	DD	0136fH
	DD	0c21H
	DD	0a7aH
	DD	0618H
	DD	017c9H
	DD	01b75H
	DD	08aeH
	DD	0786H
	DD	016fcH
	DD	010fbH
	DD	01170H
	DD	02679H
	DD	01f02H
	DD	021fbH
	DD	01befH
	DD	02559H
	DD	014bdH
	DD	01925H
	DD	01f3aH
	DD	010e4H
	DD	01099H
	DD	01e45H
	DD	01367H
	DD	01d2aH
	DD	09d4H
	DD	05caH
	DD	0138fH
	DD	0868H
	DD	0155fH
	DD	0220fH
	DD	02461H
	DD	0659H
	DD	0209bH
	DD	01cadH
	DD	0f89H
	DD	033fH
	DD	01f3bH
	DD	034eH
	DD	01448H
	DD	010c8H
	DD	0a61H
	DD	0260H
	DD	01e8bH
	DD	015e3H
	DD	0723H
	DD	0714H
	DD	017b0H
	DD	08a8H
	DD	01e69H
	DD	07b9H
	DD	0242eH
	DD	04e6H
	DD	017a1H
	DD	051fH
	DD	01a3fH
	DD	03f9H
	DD	01532H
	DD	01edeH
	DD	023f1H
	DD	01d9H
	DD	0d8cH
	DD	01b5fH
	DD	0159dH
	DD	07f0H
	DD	02524H
	DD	08a1H
	DD	022cbH
	DD	088fH
	DD	01174H
	DD	019cdH
	DD	01b3dH
	DD	0262fH
	DD	0148eH
	DD	0c34H
	DD	01944H
	DD	01486H
	DD	01a4H
	DD	01b52H
	DD	088H
	DD	01d4bH
	DD	020a8H
	DD	0cc9H
	DD	01521H
	DD	024d3H
	DD	01b6fH
	DD	0cf0H
	DD	01bd8H
	DD	01e5fH
	DD	0173eH
	DD	0231dH
	DD	0123dH
	DD	0144bH
	DD	020cH
	DD	03cbH
	DD	0b1bH
	DD	0ce7H
	DD	01a82H
	DD	07c6H
	DD	0491H
	DD	01d03H
	DD	0208dH
	DD	02257H
	DD	0145bH
	DD	0d0eH
	DD	0785H
	DD	02016H
	DD	09c3H
	DD	01f9dH
	DD	017ffH
	DD	0e9bH
	DD	014b6H
	DD	01d3bH
	DD	0a6dH
	DD	01566H
	DD	0734H
	DD	0263fH
	DD	01499H
	DD	01147H
	DD	0237cH
	DD	0ec1H
	DD	026dH
	DD	02366H
	DD	01d25H
	DD	0f4fH
	DD	08fdH
	DD	085aH
	DD	01665H
	DD	01fe1H
	DD	015a6H
	DD	01f58H
	DD	0f13H
	DD	053dH
	DD	026dbH
	DD	035cH
	DD	026beH
	DD	0234bH
	DD	01897H
	DD	01679H
	DD	0d46H
	DD	0a1dH
	DD	01743H
	DD	01140H
	DD	01967H
	DD	0c53H
	DD	02092H
	DD	0711H
	DD	0aa7H
	DD	0107dH
	DD	0155bH
	DD	0c4dH
	DD	0264bH
	DD	024H
	DD	0f05H
	DD	01c33H
	DD	042H
	DD	02b9H
	DD	02148H
	DD	02345H
	DD	0c18H
	DD	020dbH
	DD	0ff5H
	DD	01012H
	DD	01d7H
	DD	05d3H
	DD	0168bH
	DD	0148bH
	DD	07efH
	DD	010b4H
	DD	021a1H
	DD	0f9fH
	DD	02644H
	DD	01197H
	DD	0a5fH
	DD	022f6H
	DD	0db4H
	DD	01243H
	DD	025dcH
	DD	0537H
	DD	02080H
	DD	0cb3H
	DD	01d74H
	DD	01ca8H
	DD	0e88H
	DD	019feH
	DD	02207H
	DD	020e6H
	DD	0675H
	DD	0140eH
	DD	01736H
	DD	0ddaH
	DD	012e9H
	DD	026cdH
	DD	044aH
	DD	0665H
	DD	01374H
	DD	01a70H
	DD	01d14H
	DD	02463H
	DD	018ccH
	DD	01418H
	DD	0973H
	DD	07b2H
	DD	0e0fH
	DD	0222bH
	DD	0170H
	DD	0b8eH
	DD	016aeH
	DD	050cH
	DD	0194dH
	DD	018c1H
	DD	067bH
	DD	0460H
	DD	0b4dH
	DD	01d5bH
	DD	01b48H
	DD	0eaH
	DD	02109H
	DD	0b93H
	DD	014ffH
	DD	0497H
	DD	01e85H
	DD	03deH
	DD	0171aH
	DD	022b2H
	DD	0ae6H
	DD	01b82H
	DD	01fc7H
	DD	01209H
	DD	046fH
	DD	018e3H
	DD	0c8fH
	DD	018feH
	DD	03e2H
	DD	01fdH
	DD	0e7aH
	DD	021d2H
	DD	026ffH
	DD	01a4bH
	DD	022d5H
	DD	01e6eH
	DD	023faH
	DD	0151H
	DD	0133cH
	DD	0213fH
	DD	0ce4H
	DD	01c8dH
	DD	01b0bH
	DD	0817H
	DD	034cH
	DD	01811H
	DD	02371H
	DD	01ee1H
	DD	03cH
	DD	01328H
	DD	06eaH
	DD	026a5H
	DD	0666H
	DD	0110cH
	DD	01febH
	DD	02244H
	DD	04aH
	DD	06c0H
	DD	01e7fH
	DD	033H
	DD	01ea7H
	DD	01b4aH
	DD	0482H
	DD	058H
	DD	024beH
	DD	01ffcH
	DD	02378H
	DD	0707H
	DD	0c6cH
	DD	014e1H
	DD	02446H
	DD	025d2H
	DD	0190eH
	DD	0332H
	DD	02621H
	DD	01651H
	DD	01165H
	DD	0bedH
	DD	01c57H
	DD	0f45H
	DD	01177H
	DD	0da5H
	DD	0215dH
	DD	024a3H
	DD	010d6H
	DD	0f84H
	DD	0133eH
	DD	01794H
	DD	01148H
	DD	0185eH
	DD	0103cH
	DD	07c5H
	DD	0107fH
	DD	01f40H
	DD	0bcaH
	DD	05b5H
	DD	01363H
	DD	0b8aH
	DD	01f2bH
	DD	01f2eH
	DD	0423H
	DD	01d37H
	DD	0c2aH
	DD	01465H
	DD	04c2H
	DD	01f1eH
	DD	0148aH
	DD	01714H
	DD	074bH
	DD	03c0H
	DD	05f5H
	DD	01629H
	DD	01f20H
	DD	01095H
	DD	01fe3H
	DD	0241H
	DD	01a4fH
	DD	0a6H
	DD	01104H
	DD	0114bH
	DD	02406H
	DD	096aH
	DD	01873H
	DD	01e03H
	DD	02684H
	DD	0f14H
	DD	0531H
	DD	01667H
	DD	02277H
	DD	01d1fH
	DD	01b0cH
	DD	0abeH
	DD	020b5H
	DD	01cd7H
	DD	02642H
	DD	02c2H
	DD	01109H
	DD	020b6H
	DD	0252eH
	DD	0206eH
	DD	01e14H
	DD	01d46H
	DD	01b2cH
	DD	01011H
	DD	02112H
	DD	09d0H
	DD	0d2fH
	DD	0299H
	DD	01457H
	DD	0219cH
	DD	0184eH
	DD	026f2H
	DD	0e40H
	DD	0d2H
	DD	02291H
	DD	0211H
	DD	026b5H
	DD	01031H
	DD	012d1H
	DD	01dc4H
	DD	019dH
	DD	0aaeH
	DD	07e6H
	DD	01cd3H
	DD	0acbH
	DD	02d7H
	DD	02087H
	DD	01b1H
	DD	010f8H
	DD	0fb0H
	DD	010cdH
	DD	02046H
	DD	02145H
	DD	01fa9H
	DD	0129cH
	DD	0e0eH
	DD	0211dH
	DD	011aeH
	DD	0c36H
	DD	01effH
	DD	0361H
	DD	066eH
	DD	0e0dH
	DD	01a8fH
	DD	0233eH
	DD	0173fH
	DD	01b39H
	DD	01840H
	DD	012d7H
	DD	020d9H
	DD	0230fH
	DD	0122bH
	DD	0935H
	DD	0d56H
	DD	021caH
	DD	019f1H
	DD	01085H
	DD	01487H
	DD	0a2cH
	DD	01a59H
	DD	02147H
	DD	0e77H
	DD	0ffdH
	DD	05dfH
	DD	094fH
	DD	0fcdH
	DD	0106cH
	DD	0fe6H
	DD	0936H
	DD	0aebH
	DD	013b2H
	DD	0428H
	DD	01ad0H
	DD	014d5H
	DD	0b02H
	DD	02245H
	DD	01c7aH
	DD	01c3fH
	DD	059aH
	DD	0255H
	DD	025feH
	DD	01525H
	DD	0249cH
	DD	01cafH
	DD	01a97H
	DD	02663H
	DD	0188dH
	DD	026e0H
	DD	0ad1H
	DD	016afH
	DD	017a7H
	DD	0718H
	DD	0132cH
	DD	0153fH
	DD	09b3H
	DD	0c15H
	DD	02214H
	DD	0247dH
	DD	0261aH
	DD	0626H
	DD	0fa4H
	DD	01f0aH
	DD	0960H
	DD	0240aH
	DD	01fc6H
	DD	0314H
	DD	02123H
	DD	0163cH
	DD	090H
	DD	021b4H
	DD	0deeH
	DD	01123H
	DD	01bf1H
	DD	0838H
	DD	013e0H
	DD	0923H
	DD	01b64H
	DD	050fH
	DD	0248fH
	DD	01914H
	DD	01f27H
	DD	01d80H
	DD	01feaH
	DD	01bfH
	DD	0196eH
	DD	07abH
	DD	0a53H
	DD	024fbH
	DD	03faH
	DD	01631H
	DD	015d8H
	DD	0aafH
	DD	02281H
	DD	01dadH
	DD	04edH
	DD	09d2H
	DD	0cdcH
	DD	01a19H
	DD	0fadH
	DD	01e72H
	DD	0d38H
	DD	0449H
	DD	0b4bH
	DD	0f75H
	DD	023fcH
	DD	0117dH
	DD	0329H
	DD	02428H
	DD	06e9H
	DD	08bH
	DD	0238fH
	DD	016a7H
	DD	05ecH
	DD	023ddH
	DD	01ec2H
	DD	01ca9H
	DD	0cceH
	DD	01333H
	DD	086fH
	DD	0c20H
	DD	01c71H
	DD	01595H
	DD	026c2H
	DD	0236aH
	DD	01a25H
	DD	013c8H
	DD	0109fH
	DD	046eH
	DD	025a3H
	DD	0b53H
	DD	016d4H
	DD	0249bH
	DD	0720H
	DD	064aH
	DD	0735H
	DD	0b29H
	DD	01725H
	DD	01a68H
	DD	01d19H
	DD	05daH
	DD	0183fH
	DD	01c3H
	DD	018c3H
	DD	09d3H
	DD	01d50H
	DD	01916H
	DD	04acH
	DD	02071H
	DD	01134H
	DD	016b7H
	DD	017a9H
	DD	01b8fH
	DD	0895H
	DD	02515H
	DD	02156H
	DD	01800H
	DD	013aH
	DD	01225H
	DD	026acH
	DD	0d24H
	DD	0a80H
	DD	0986H
	DD	011eH
	DD	0b70H
	DD	01620H
	DD	0edaH
	DD	04bdH
	DD	0258cH
	DD	01d22H
	DD	0297H
	DD	0f63H
	DD	01d7eH
	DD	07cbH
	DD	01b31H
	DD	01a03H
	DD	075eH
	DD	0b19H
	DD	0bfbH
	DD	0146dH
	DD	0411H
	DD	01cc2H
	DD	07d6H
	DD	012e8H
	DD	02569H
	DD	02196H
	DD	07bcH
	DD	0b3eH
	DD	0211aH
	DD	011H
	DD	0ef7H
	DD	037aH
	DD	011e0H
	DD	034H
	DD	0e5fH
	DD	0ae0H
	DD	01655H
	DD	01cb3H
	DD	01a37H
	DD	01fbdH
	DD	01409H
	DD	09deH
	DD	02503H
	DD	0530H
	DD	019b7H
	DD	01102H
	DD	01891H
	DD	0984H
	DD	01b91H
	DD	02176H
	DD	0104fH
	DD	0112aH
	DD	0ad6H
	DD	016c6H
	DD	088dH
	DD	023c2H
	DD	0fc1H
	DD	026e4H
	DD	010d2H
	DD	076eH
	DD	08f2H
	DD	01426H
	DD	011bdH
	DD	01dbcH
	DD	026a2H
	DD	026a1H
	DD	0afaH
	DD	06fcH
	DD	0b04H
	DD	070fH
	DD	0239cH
	DD	0505H
	DD	020eaH
	DD	0bc6H
	DD	0e46H
	DD	012e5H
	DD	0207cH
	DD	01721H
	DD	01cbfH
	DD	01716H
	DD	01010H
	DD	01bd6H
	DD	07cH
	DD	01d95H
	DD	01391H
	DD	023a5H
	DD	017caH
	DD	0b76H
	DD	0f1eH
	DD	0220H
	DD	02425H
	DD	0fd9H
	DD	082eH
	DD	01990H
	DD	0197cH
	DD	020d7H
	DD	01cacH
	DD	0932H
	DD	05e6H
	DD	0213dH
	DD	0b01H
	DD	0c03H
	DD	01ac9H
	DD	020c9H
	DD	01e7cH
	DD	0efH
	DD	0db0H
	DD	0ec3H
	DD	01c9eH
	DD	0180H
	DD	01799H
	DD	0b79H
	DD	016b8H
	DD	01e50H
	DD	01923H
	DD	02cfH
	DD	02a0H
	DD	01dafH
	DD	013aaH
	DD	0237bH
	DD	0142eH
	DD	01683H
	DD	0e48H
	DD	02a5H
	DD	0486H
	DD	0208fH
	DD	0270cH
	DD	02d5H
	DD	01a7bH
	DD	01f0dH
	DD	075bH
	DD	07fbH
	DD	02d0H
	DD	023c9H
	DD	01641H
	DD	023b4H
	DD	01b44H
	DD	0da9H
	DD	0257eH
	DD	0d08H
	DD	0cH
	DD	0f33H
	DD	02564H
	DD	01577H
	DD	01b6eH
	DD	01142H
	DD	0187cH
	DD	01d66H
	DD	01f9cH
	DD	02078H
	DD	0a3eH
	DD	021beH
	DD	01aaeH
	DD	019d5H
	DD	02494H
	DD	02060H
	DD	02575H
	DD	01ab4H
	DD	06d9H
	DD	0201bH
	DD	01c7fH
	DD	01a39H
	DD	0131bH
_DATA	ENDS
PUBLIC	_compar
PUBLIC	_main
PUBLIC	??_C@_05PDJBBECF@pause?$AA@			; `string'
EXTRN	__imp__qsort:PROC
EXTRN	__imp__system:PROC
EXTRN	__imp__clock:PROC
EXTRN	_bubble_sort:PROC
EXTRN	_quick_sort:PROC
EXTRN	_IsBinrayPower:PROC
EXTRN	_foo:PROC
EXTRN	_IsBinrayPower_2:PROC
EXTRN	_test_swap:PROC
EXTRN	_bubble_sort2:PROC
EXTRN	@_RTC_CheckStackVars@8:PROC
EXTRN	@__security_check_cookie@4:PROC
EXTRN	__RTC_CheckEsp:PROC
EXTRN	__RTC_InitBase:PROC
EXTRN	__RTC_Shutdown:PROC
EXTRN	___security_cookie:DWORD
;	COMDAT rtc$TMZ
rtc$TMZ	SEGMENT
__RTC_Shutdown.rtc$TMZ DD FLAT:__RTC_Shutdown
rtc$TMZ	ENDS
;	COMDAT rtc$IMZ
rtc$IMZ	SEGMENT
__RTC_InitBase.rtc$IMZ DD FLAT:__RTC_InitBase
rtc$IMZ	ENDS
;	COMDAT ??_C@_05PDJBBECF@pause?$AA@
CONST	SEGMENT
??_C@_05PDJBBECF@pause?$AA@ DB 'pause', 00H		; `string'
CONST	ENDS
; Function compile flags: /Odtp /RTCsu /ZI
; File d:\custom\test\练习和实验\算法\main.c
;	COMDAT _main
_TEXT	SEGMENT
_prt$ = -164						; size = 4
_c_const_int$ = -140					; size = 4
_a$ = -128						; size = 4
_quick_sort_work_time$ = -116				; size = 4
_ret4$ = -104						; size = 4
_ret2$ = -92						; size = 4
_ret$ = -80						; size = 4
_ret3$ = -68						; size = 4
_array2$ = -56						; size = 20
_array1$ = -28						; size = 20
__$ArrayPad$ = -4					; size = 4
_main	PROC						; COMDAT

; 34   : {

	push	ebp
	mov	ebp, esp
	sub	esp, 360				; 00000168H
	push	ebx
	push	esi
	push	edi
	lea	edi, DWORD PTR [ebp-360]
	mov	ecx, 90					; 0000005aH
	mov	eax, -858993460				; ccccccccH
	rep stosd
	mov	eax, DWORD PTR ___security_cookie
	xor	eax, ebp
	mov	DWORD PTR __$ArrayPad$[ebp], eax

; 35   : 	int array1[] = { 2, 3, 7, 1, 4};

	mov	DWORD PTR _array1$[ebp], 2
	mov	DWORD PTR _array1$[ebp+4], 3
	mov	DWORD PTR _array1$[ebp+8], 7
	mov	DWORD PTR _array1$[ebp+12], 1
	mov	DWORD PTR _array1$[ebp+16], 4

; 36   : 	int array2[5] = { 0 };

	mov	DWORD PTR _array2$[ebp], 0
	xor	eax, eax
	mov	DWORD PTR _array2$[ebp+4], eax
	mov	DWORD PTR _array2$[ebp+8], eax
	mov	DWORD PTR _array2$[ebp+12], eax
	mov	DWORD PTR _array2$[ebp+16], eax

; 37   : 	int ret3 = sizeof(double);

	mov	DWORD PTR _ret3$[ebp], 8

; 38   : 
; 39   : 	//判断一个int型的整数是否是2的幂
; 40   : 	int ret = IsBinrayPower(76);

	push	76					; 0000004cH
	call	_IsBinrayPower
	add	esp, 4
	mov	DWORD PTR _ret$[ebp], eax

; 41   : 	int ret2 = IsBinrayPower_2(3);

	push	3
	call	_IsBinrayPower_2
	add	esp, 4
	mov	DWORD PTR _ret2$[ebp], eax

; 42   : 
; 43   : 	//考查递归调用
; 44   : 	int ret4 = foo(2, 3);

	push	3
	push	2
	call	_foo
	add	esp, 8
	mov	DWORD PTR _ret4$[ebp], eax

; 45   : 
; 46   : 	//测试交换
; 47   : 	test_swap();

	call	_test_swap

; 48   : 
; 49   : 	//冒泡排序
; 50   : 	bubble_sort(array1, sizeof(array1)/sizeof(int));//注意这里要用sizeof(array1)/sizeof(int)而不是sizeof(array1)

	push	5
	lea	eax, DWORD PTR _array1$[ebp]
	push	eax
	call	_bubble_sort
	add	esp, 8

; 51   : 	bubble_sort2(array1, sizeof(array1) / sizeof(int));

	push	5
	lea	eax, DWORD PTR _array1$[ebp]
	push	eax
	call	_bubble_sort2
	add	esp, 8

; 52   : 	
; 53   : #if 0
; 54   : 	start_time = clock();//获取程序开始运算时间
; 55   : 	select_Sort1(array_source, sizeof(array_source) / sizeof(int));
; 56   : 	end_time = clock();//获取程序结束运算时间
; 57   : 	long select_work_time = end_time - start_time;//计算程序运算时间103ms
; 58   : 
; 59   : 	start_time = clock();//获取程序开始运算时间
; 60   : 	bubble_sort(array_source, sizeof(array_source) / sizeof(int));
; 61   : 	end_time = clock();//获取程序结束运算时间
; 62   : 	long bubble_work_time = end_time - start_time;//计算程序运算时间232
; 63   : 
; 64   : 	start_time = clock();//获取程序开始运算时间
; 65   : 	bubble_sort2(array_source, sizeof(array_source) / sizeof(int));
; 66   : 	end_time = clock();//获取程序结束运算时间
; 67   : 	long bubble2_work_time = end_time - start_time;//计算程序运算时间342
; 68   : 
; 69   : 
; 70   : 	start_time = clock();//获取程序开始运算时间
; 71   : 	select_sort_20190622(array_source, sizeof(array_source) / sizeof(int));
; 72   : 	end_time = clock();//获取程序结束运算时间
; 73   : 	long select_sort_20190622_work_time = end_time - start_time;//计算程序运算时间104ms
; 74   : #endif	
; 75   : 	start_time = clock();//获取程序开始运算时间

	mov	esi, esp
	call	DWORD PTR __imp__clock
	cmp	esi, esp
	call	__RTC_CheckEsp
	mov	DWORD PTR _start_time, eax

; 76   : 	quick_sort(array_source, 0, sizeof(array_source) / sizeof(int) - 1 );

	push	9
	push	0
	push	OFFSET _array_source
	call	_quick_sort
	add	esp, 12					; 0000000cH

; 77   : 	end_time = clock();//获取程序结束运算时间

	mov	esi, esp
	call	DWORD PTR __imp__clock
	cmp	esi, esp
	call	__RTC_CheckEsp
	mov	DWORD PTR _end_time, eax

; 78   : 	long quick_sort_work_time = end_time - start_time;//计算程序运算时间3ms

	mov	eax, DWORD PTR _end_time
	sub	eax, DWORD PTR _start_time
	mov	DWORD PTR _quick_sort_work_time$[ebp], eax

; 79   : 
; 80   : 
; 81   : 	int a = 10;

	mov	DWORD PTR _a$[ebp], 10			; 0000000aH

; 82   : 	static int b = 5;
; 83   : 	const int c_const_int = 6;

	mov	DWORD PTR _c_const_int$[ebp], 6

; 84   : 	static int e;
; 85   : 	const int d_const_int;
; 86   : 	a = 5;

	mov	DWORD PTR _a$[ebp], 5

; 87   : 	//e = a + 1;
; 88   : 
; 89   : 	int * prt = &a;

	lea	eax, DWORD PTR _a$[ebp]
	mov	DWORD PTR _prt$[ebp], eax

; 90   : 
; 91   : 
; 92   : 
; 93   : #if 0
; 94   : 	//利用栈的特点逆序
; 95   : 	printf("please input string and end with # \n");
; 96   : 	Print();
; 97   : #endif
; 98   : 
; 99   : 	//void qsort(void *base, size_t nitems, size_t size, int(*compar)(const void *, const void*))
; 100  : 
; 101  : 		//测试stdlib库的qsort函数
; 102  : 	qsort(array_source_large, sizeof(array_source_large)/sizeof(int), sizeof(int), compar);

	mov	esi, esp
	push	OFFSET _compar
	push	4
	push	10000					; 00002710H
	push	OFFSET _array_source_large
	call	DWORD PTR __imp__qsort
	add	esp, 16					; 00000010H
	cmp	esi, esp
	call	__RTC_CheckEsp

; 103  : 
; 104  : 
; 105  : 	system("pause");

	mov	esi, esp
	push	OFFSET ??_C@_05PDJBBECF@pause?$AA@
	call	DWORD PTR __imp__system
	add	esp, 4
	cmp	esi, esp
	call	__RTC_CheckEsp

; 106  : 
; 107  : 	return 0;

	xor	eax, eax

; 108  : }

	push	edx
	mov	ecx, ebp
	push	eax
	lea	edx, DWORD PTR $LN7@main
	call	@_RTC_CheckStackVars@8
	pop	eax
	pop	edx
	pop	edi
	pop	esi
	pop	ebx
	mov	ecx, DWORD PTR __$ArrayPad$[ebp]
	xor	ecx, ebp
	call	@__security_check_cookie@4
	add	esp, 360				; 00000168H
	cmp	ebp, esp
	call	__RTC_CheckEsp
	mov	esp, ebp
	pop	ebp
	ret	0
$LN7@main:
	DD	3
	DD	$LN6@main
$LN6@main:
	DD	-28					; ffffffe4H
	DD	20					; 00000014H
	DD	$LN3@main
	DD	-56					; ffffffc8H
	DD	20					; 00000014H
	DD	$LN4@main
	DD	-128					; ffffff80H
	DD	4
	DD	$LN5@main
$LN5@main:
	DB	97					; 00000061H
	DB	0
$LN4@main:
	DB	97					; 00000061H
	DB	114					; 00000072H
	DB	114					; 00000072H
	DB	97					; 00000061H
	DB	121					; 00000079H
	DB	50					; 00000032H
	DB	0
$LN3@main:
	DB	97					; 00000061H
	DB	114					; 00000072H
	DB	114					; 00000072H
	DB	97					; 00000061H
	DB	121					; 00000079H
	DB	49					; 00000031H
	DB	0
_main	ENDP
_TEXT	ENDS
; Function compile flags: /Odtp /RTCsu /ZI
; File d:\custom\test\练习和实验\算法\main.c
;	COMDAT _compar
_TEXT	SEGMENT
_a$ = 8							; size = 4
_b$ = 12						; size = 4
_compar	PROC						; COMDAT

; 26   : {

	push	ebp
	mov	ebp, esp
	sub	esp, 192				; 000000c0H
	push	ebx
	push	esi
	push	edi
	lea	edi, DWORD PTR [ebp-192]
	mov	ecx, 48					; 00000030H
	mov	eax, -858993460				; ccccccccH
	rep stosd

; 27   : 	return *(int*)a - *(int*)b;

	mov	eax, DWORD PTR _a$[ebp]
	mov	ecx, DWORD PTR _b$[ebp]
	mov	eax, DWORD PTR [eax]
	sub	eax, DWORD PTR [ecx]

; 28   : }

	pop	edi
	pop	esi
	pop	ebx
	mov	esp, ebp
	pop	ebp
	ret	0
_compar	ENDP
_TEXT	ENDS
END
